
crtl_giga.elf:     file format elf32-avr

Sections:
Idx Name          Size      VMA       LMA       File off  Algn
  0 .data         00000160  00800200  000022a2  00002336  2**0
                  CONTENTS, ALLOC, LOAD, DATA
  1 .text         000022a2  00000000  00000000  00000094  2**1
                  CONTENTS, ALLOC, LOAD, READONLY, CODE
  2 .bss          00000271  00800360  00800360  00002496  2**0
                  ALLOC
  3 .comment      00000030  00000000  00000000  00002496  2**0
                  CONTENTS, READONLY
  4 .note.gnu.avr.deviceinfo 00000040  00000000  00000000  000024c8  2**2
                  CONTENTS, READONLY
  5 .debug_aranges 00000390  00000000  00000000  00002508  2**0
                  CONTENTS, READONLY, DEBUGGING
  6 .debug_info   00009ca2  00000000  00000000  00002898  2**0
                  CONTENTS, READONLY, DEBUGGING
  7 .debug_abbrev 000023a9  00000000  00000000  0000c53a  2**0
                  CONTENTS, READONLY, DEBUGGING
  8 .debug_line   0000260d  00000000  00000000  0000e8e3  2**0
                  CONTENTS, READONLY, DEBUGGING
  9 .debug_frame  00000a54  00000000  00000000  00010ef0  2**2
                  CONTENTS, READONLY, DEBUGGING
 10 .debug_str    000027c9  00000000  00000000  00011944  2**0
                  CONTENTS, READONLY, DEBUGGING
 11 .debug_loc    00003278  00000000  00000000  0001410d  2**0
                  CONTENTS, READONLY, DEBUGGING
 12 .debug_ranges 00000320  00000000  00000000  00017385  2**0
                  CONTENTS, READONLY, DEBUGGING

Disassembly of section .text:

00000000 <__vectors>:
       0:	d8 c3       	rjmp	.+1968   	; 0x7b2 <__ctors_end>
       2:	00 00       	nop
       4:	06 c4       	rjmp	.+2060   	; 0x812 <__bad_interrupt>
       6:	00 00       	nop
       8:	04 c4       	rjmp	.+2056   	; 0x812 <__bad_interrupt>
       a:	00 00       	nop
       c:	02 c4       	rjmp	.+2052   	; 0x812 <__bad_interrupt>
       e:	00 00       	nop
      10:	00 c4       	rjmp	.+2048   	; 0x812 <__bad_interrupt>
      12:	00 00       	nop
      14:	fe c3       	rjmp	.+2044   	; 0x812 <__bad_interrupt>
      16:	00 00       	nop
      18:	fc c3       	rjmp	.+2040   	; 0x812 <__bad_interrupt>
      1a:	00 00       	nop
      1c:	fa c3       	rjmp	.+2036   	; 0x812 <__bad_interrupt>
      1e:	00 00       	nop
      20:	f8 c3       	rjmp	.+2032   	; 0x812 <__bad_interrupt>
      22:	00 00       	nop
      24:	f6 c3       	rjmp	.+2028   	; 0x812 <__bad_interrupt>
      26:	00 00       	nop
      28:	f4 c3       	rjmp	.+2024   	; 0x812 <__bad_interrupt>
      2a:	00 00       	nop
      2c:	f2 c3       	rjmp	.+2020   	; 0x812 <__bad_interrupt>
      2e:	00 00       	nop
      30:	f0 c3       	rjmp	.+2016   	; 0x812 <__bad_interrupt>
      32:	00 00       	nop
      34:	ee c3       	rjmp	.+2012   	; 0x812 <__bad_interrupt>
      36:	00 00       	nop
      38:	ec c3       	rjmp	.+2008   	; 0x812 <__bad_interrupt>
      3a:	00 00       	nop
      3c:	ea c3       	rjmp	.+2004   	; 0x812 <__bad_interrupt>
      3e:	00 00       	nop
      40:	e8 c3       	rjmp	.+2000   	; 0x812 <__bad_interrupt>
      42:	00 00       	nop
      44:	e6 c3       	rjmp	.+1996   	; 0x812 <__bad_interrupt>
      46:	00 00       	nop
      48:	e4 c3       	rjmp	.+1992   	; 0x812 <__bad_interrupt>
      4a:	00 00       	nop
      4c:	e2 c3       	rjmp	.+1988   	; 0x812 <__bad_interrupt>
      4e:	00 00       	nop
      50:	0c 94 e7 0d 	jmp	0x1bce	; 0x1bce <__vector_20>
      54:	de c3       	rjmp	.+1980   	; 0x812 <__bad_interrupt>
      56:	00 00       	nop
      58:	dc c3       	rjmp	.+1976   	; 0x812 <__bad_interrupt>
      5a:	00 00       	nop
      5c:	0c 94 f6 08 	jmp	0x11ec	; 0x11ec <__vector_23>
      60:	d8 c3       	rjmp	.+1968   	; 0x812 <__bad_interrupt>
      62:	00 00       	nop
      64:	06 c7       	rjmp	.+3596   	; 0xe72 <__vector_25>
      66:	00 00       	nop
      68:	3a c7       	rjmp	.+3700   	; 0xede <__vector_26>
      6a:	00 00       	nop
      6c:	d2 c3       	rjmp	.+1956   	; 0x812 <__bad_interrupt>
      6e:	00 00       	nop
      70:	d0 c3       	rjmp	.+1952   	; 0x812 <__bad_interrupt>
      72:	00 00       	nop
      74:	ce c3       	rjmp	.+1948   	; 0x812 <__bad_interrupt>
      76:	00 00       	nop
      78:	cc c3       	rjmp	.+1944   	; 0x812 <__bad_interrupt>
      7a:	00 00       	nop
      7c:	ca c3       	rjmp	.+1940   	; 0x812 <__bad_interrupt>
      7e:	00 00       	nop
      80:	c8 c3       	rjmp	.+1936   	; 0x812 <__bad_interrupt>
      82:	00 00       	nop
      84:	c6 c3       	rjmp	.+1932   	; 0x812 <__bad_interrupt>
      86:	00 00       	nop
      88:	c4 c3       	rjmp	.+1928   	; 0x812 <__bad_interrupt>
      8a:	00 00       	nop
      8c:	0c 94 41 0e 	jmp	0x1c82	; 0x1c82 <__vector_35>
      90:	c0 c3       	rjmp	.+1920   	; 0x812 <__bad_interrupt>
      92:	00 00       	nop
      94:	be c3       	rjmp	.+1916   	; 0x812 <__bad_interrupt>
      96:	00 00       	nop
      98:	bc c3       	rjmp	.+1912   	; 0x812 <__bad_interrupt>
      9a:	00 00       	nop
      9c:	ba c3       	rjmp	.+1908   	; 0x812 <__bad_interrupt>
      9e:	00 00       	nop
      a0:	b8 c3       	rjmp	.+1904   	; 0x812 <__bad_interrupt>
      a2:	00 00       	nop
      a4:	b6 c3       	rjmp	.+1900   	; 0x812 <__bad_interrupt>
      a6:	00 00       	nop
      a8:	b4 c3       	rjmp	.+1896   	; 0x812 <__bad_interrupt>
      aa:	00 00       	nop
      ac:	b2 c3       	rjmp	.+1892   	; 0x812 <__bad_interrupt>
      ae:	00 00       	nop
      b0:	b0 c3       	rjmp	.+1888   	; 0x812 <__bad_interrupt>
      b2:	00 00       	nop
      b4:	0c 94 a3 0e 	jmp	0x1d46	; 0x1d46 <__vector_45>
      b8:	ac c3       	rjmp	.+1880   	; 0x812 <__bad_interrupt>
      ba:	00 00       	nop
      bc:	aa c3       	rjmp	.+1876   	; 0x812 <__bad_interrupt>
      be:	00 00       	nop
      c0:	a8 c3       	rjmp	.+1872   	; 0x812 <__bad_interrupt>
      c2:	00 00       	nop
      c4:	a6 c3       	rjmp	.+1868   	; 0x812 <__bad_interrupt>
      c6:	00 00       	nop
      c8:	a4 c3       	rjmp	.+1864   	; 0x812 <__bad_interrupt>
      ca:	00 00       	nop
      cc:	a2 c3       	rjmp	.+1860   	; 0x812 <__bad_interrupt>
      ce:	00 00       	nop
      d0:	a0 c3       	rjmp	.+1856   	; 0x812 <__bad_interrupt>
      d2:	00 00       	nop
      d4:	9e c3       	rjmp	.+1852   	; 0x812 <__bad_interrupt>
      d6:	00 00       	nop
      d8:	9c c3       	rjmp	.+1848   	; 0x812 <__bad_interrupt>
      da:	00 00       	nop
      dc:	9a c3       	rjmp	.+1844   	; 0x812 <__bad_interrupt>
      de:	00 00       	nop
      e0:	98 c3       	rjmp	.+1840   	; 0x812 <__bad_interrupt>
      e2:	00 00       	nop
      e4:	c7 09       	sbc	r28, r7
      e6:	ca 09       	sbc	r28, r10
      e8:	b9 09       	sbc	r27, r9
      ea:	bd 09       	sbc	r27, r13
      ec:	c3 09       	sbc	r28, r3
      ee:	01 0a       	sbc	r0, r17
      f0:	ce 09       	sbc	r28, r14
      f2:	d2 09       	sbc	r29, r2
      f4:	d8 09       	sbc	r29, r8
      f6:	dc 09       	sbc	r29, r12
      f8:	e0 09       	sbc	r30, r0
      fa:	e6 09       	sbc	r30, r6
      fc:	ea 09       	sbc	r30, r10
      fe:	ee 09       	sbc	r30, r14
     100:	01 0a       	sbc	r0, r17
     102:	f4 09       	sbc	r31, r4
     104:	f8 09       	sbc	r31, r8
     106:	fc 09       	sbc	r31, r12

00000108 <__trampolines_end>:
     108:	00 00       	nop
     10a:	0a 0b       	sbc	r16, r26
     10c:	02 09       	sbc	r16, r2
     10e:	0c 0d       	add	r16, r12
     110:	0e 08       	sbc	r0, r14
     112:	07 03       	mulsu	r16, r23
     114:	04 01       	movw	r0, r8
	...
     132:	00 00       	nop
     134:	12 11       	cpse	r17, r2
     136:	10 00       	.word	0x0010	; ????
	...

0000014e <digital_pin_to_bit_mask_PGM>:
     14e:	01 02 10 20 20 08 08 10 20 40 10 20 40 80 02 01     ...  ... @. @...
     15e:	02 01 08 04 02 01 01 02 04 08 10 20 40 80 80 40     ........... @..@
     16e:	20 10 08 04 02 01 80 04 02 01 80 40 20 10 08 04      ..........@ ...
     17e:	02 01 08 04 02 01 01 02 04 08 10 20 40 80 01 02     ........... @...
     18e:	04 08 10 20 40 80                                   ... @.

00000194 <digital_pin_to_port_PGM>:
     194:	05 05 05 05 07 05 08 08 08 08 02 02 02 02 0a 0a     ................
     1a4:	08 08 04 04 04 04 01 01 01 01 01 01 01 01 03 03     ................
     1b4:	03 03 03 03 03 03 04 07 07 07 0c 0c 0c 0c 0c 0c     ................
     1c4:	0c 0c 02 02 02 02 06 06 06 06 06 06 06 06 0b 0b     ................
     1d4:	0b 0b 0b 0b 0b 0b                                   ......

000001da <port_to_output_PGM>:
     1da:	00 00 22 00 25 00 28 00 2b 00 2e 00 31 00 34 00     ..".%.(.+...1.4.
     1ea:	02 01 00 00 05 01 08 01 0b 01                       ..........

000001f4 <port_to_mode_PGM>:
     1f4:	00 00 21 00 24 00 27 00 2a 00 2d 00 30 00 33 00     ..!.$.'.*.-.0.3.
     204:	01 01 00 00 04 01 07 01 0a 01                       ..........

0000020e <timerPeriod>:
     20e:	e8 03 e8 03 ba db 7c 92 dd 6d e4 57 3e 49 c7 3e     ......|..m.W>I.>
     21e:	ef 36 d4 30 f2 2b f3 27 9f 24 ce 21 64 1f 4c 1d     .6.0.+.'.$.!d.L.
     22e:	ba db cd ce 50 c3 08 b9 c8 af 69 a7 cd 9f da 98     ....P.....i.....
     23e:	7c 92 a0 8c 37 87 35 82 8f 7d 3a 79 30 75 68 71     |...7.5..}:y0uhq
     24e:	dd 6d 89 6a 67 67 72 64 a8 61 04 5f 84 5c 25 5a     .m.jggrd.a._.\%Z
     25e:	e4 57 bf 55 b5 53 c2 51 e7 4f 20 4e 6d 4c cd 4a     .W.U.S.Q.O NmL.J
     26e:	3e 49 bf 47 50 46 ef 44 9c 43 55 42 1b 41 ec 3f     >I.GPF.D.CUB.A.?
     27e:	c7 3e ad 3d 9d 3c 96 3b 98 3a a2 39 b4 38 ce 37     .>.=.<.;.:.9.8.7
     28e:	ef 36 16 36 44 35 79 34 b3 33 f3 32 39 32 84 31     .6.6D5y4.3.292.1
     29e:	d4 30 29 30 82 2f e0 2e 42 2e a8 2d 12 2d 80 2c     .0)0./..B..-.-.,
     2ae:	f2 2b 67 2b e0 2a 5b 2a da 29 5c 29 e1 28 69 28     .+g+.*[*.)\).(i(
     2be:	f3 27 80 27 10 27 a2 26 37 26 cd 25 66 25 02 25     .'.'.'.&7&.%f%.%
     2ce:	9f 24 3e 24 e0 23 83 23 28 23 cf 22 78 22 22 22     .$>$.#.#(#."x"""
     2de:	ce 21 7b 21 2b 21 db 20 8d 20 41 20 f6 1f ac 1f     .!{!+!. . A ....
     2ee:	64 1f 1d 1f d7 1e 92 1e 4f 1e 0c 1e cb 1d 8b 1d     d.......O.......
     2fe:	4c 1d 0e 1d d1 1c 95 1c 5a 1c 20 1c e7 1b af 1b     L.......Z. .....
     30e:	77 1b 41 1b 0b 1b d6 1a a2 1a 6f 1a 3c 1a 0b 1a     w.A.......o.<...
     31e:	da 19 a9 19 7a 19 4b 19 1d 19 ef 18 c2 18 96 18     ....z.K.........
     32e:	6a 18 3f 18 14 18 ea 17 c1 17 98 17 70 17 48 17     j.?.........p.H.
     33e:	21 17 fa 16 d4 16 ae 16 89 16 64 16 40 16 1c 16     !.........d.@...
     34e:	f9 15 d6 15 b4 15 91 15 70 15 4f 15 2e 15 0d 15     ........p.O.....
     35e:	ed 14 cd 14 ae 14 8f 14 71 14 52 14 34 14 17 14     ........q.R.4...
     36e:	fa 13 dd 13 c0 13 a4 13 88 13 6c 13 51 13 36 13     ..........l.Q.6.
     37e:	1b 13 01 13 e7 12 cd 12 b3 12 9a 12 81 12 68 12     ..............h.
     38e:	50 12 37 12 1f 12 07 12 f0 11 d9 11 c1 11 ab 11     P.7.............
     39e:	94 11 7e 11 67 11 51 11 3c 11 26 11 11 11 fc 10     ..~.g.Q.<.&.....
     3ae:	e7 10 d2 10 be 10 a9 10 95 10 81 10 6e 10 5a 10     ............n.Z.
     3be:	47 10 33 10 20 10 0e 10 fb 0f e8 0f d6 0f c4 0f     G.3. ...........
     3ce:	b2 0f a0 0f 8e 0f 7d 0f 6b 0f 5a 0f 49 0f 38 0f     ......}.k.Z.I.8.
     3de:	27 0f 17 0f 06 0f f6 0e e6 0e d5 0e c6 0e b6 0e     '...............
     3ee:	a6 0e 96 0e 87 0e 78 0e 69 0e 59 0e 4b 0e 3c 0e     ......x.i.Y.K.<.
     3fe:	2d 0e 1e 0e 10 0e 02 0e f3 0d e5 0d d7 0d c9 0d     -...............
     40e:	bc 0d ae 0d a0 0d 93 0d 86 0d 78 0d 6b 0d 5e 0d     ..........x.k.^.
     41e:	51 0d 44 0d 37 0d 2b 0d 1e 0d 12 0d 05 0d f9 0c     Q.D.7.+.........
     42e:	ed 0c e1 0c d5 0c c9 0c bd 0c b1 0c a5 0c 9a 0c     ................
     43e:	8e 0c 83 0c 77 0c 6c 0c 61 0c 56 0c 4b 0c 40 0c     ....w.l.a.V.K.@.
     44e:	35 0c 2a 0c 1f 0c 15 0c 0a 0c 00 0c f5 0b eb 0b     5.*.............
     45e:	e1 0b d6 0b cc 0b c2 0b b8 0b ae 0b a4 0b 9a 0b     ................
     46e:	91 0b 87 0b 7d 0b 74 0b 6a 0b 61 0b 57 0b 4e 0b     ....}.t.j.a.W.N.
     47e:	45 0b 3b 0b 32 0b 29 0b 20 0b 17 0b 0e 0b 05 0b     E.;.2.). .......
     48e:	fd 0a f4 0a eb 0a e2 0a da 0a d1 0a c9 0a c0 0a     ................
     49e:	b8 0a b0 0a a7 0a 9f 0a 97 0a 8f 0a 87 0a 7f 0a     ................
     4ae:	77 0a 6f 0a 67 0a 5f 0a 57 0a 4f 0a 48 0a 40 0a     w.o.g._.W.O.H.@.
     4be:	38 0a 31 0a 29 0a 22 0a 1a 0a 13 0a 0b 0a 04 0a     8.1.).".........
     4ce:	fd 09 f6 09 ee 09 e7 09 e0 09 d9 09 d2 09 cb 09     ................
     4de:	c4 09 bd 09 b6 09 af 09 a9 09 a2 09 9b 09 94 09     ................
     4ee:	8e 09 87 09 80 09 7a 09 73 09 6d 09 66 09 60 09     ......z.s.m.f.`.
     4fe:	5a 09 53 09 4d 09 47 09 40 09 3a 09 34 09 2e 09     Z.S.M.G.@.:.4...
     50e:	28 09 22 09 1c 09 16 09 10 09 0a 09 04 09 fe 08     (.".............
     51e:	f8 08 f2 08 ec 08 e6 08 e1 08 db 08 d5 08 d0 08     ................
     52e:	ca 08 c4 08 bf 08 b9 08 b4 08 ae 08 a9 08 a3 08     ................
     53e:	9e 08 98 08 93 08 8e 08 88 08 83 08 7e 08 79 08     ............~.y.
     54e:	73 08 6e 08 69 08 64 08 5f 08 5a 08 55 08 50 08     s.n.i.d._.Z.U.P.
     55e:	4b 08 46 08 41 08 3c 08 37 08 32 08 2d 08 28 08     K.F.A.<.7.2.-.(.
     56e:	23 08 1f 08 1a 08 15 08 10 08 0b 08 07 08 02 08     #...............
     57e:	fd 07 f9 07 f4 07 f0 07 eb 07 e6 07 e2 07 dd 07     ................
     58e:	d9 07 d4 07 d0 07 cc 07 c7 07 c3 07 be 07 ba 07     ................
     59e:	b6 07 b1 07 ad 07 a9 07 a5 07 a0 07 9c 07 98 07     ................
     5ae:	94 07 8f 07 8b 07 87 07 83 07 7f 07 7b 07 77 07     ............{.w.
     5be:	73 07 6f 07 6b 07 67 07 63 07 5f 07 5b 07 57 07     s.o.k.g.c._.[.W.
     5ce:	53 07 4f 07 4b 07 47 07 44 07 40 07 3c 07 38 07     S.O.K.G.D.@.<.8.
     5de:	34 07 30 07 2d 07 29 07 25 07 22 07 1e 07 1a 07     4.0.-.).%.".....
     5ee:	17 07 13 07 0f 07 0c 07 08 07 04 07 01 07 fd 06     ................
     5fe:	fa 06 f6 06 f3 06 ef 06 ec 06 e8 06 e5 06 e1 06     ................
     60e:	de 06 da 06 d7 06 d4 06 d0 06 cd 06 c9 06 c6 06     ................
     61e:	c3 06 bf 06 bc 06 b9 06 b6 06 b2 06 af 06 ac 06     ................
     62e:	a9 06 a5 06 a2 06 9f 06 9c 06 99 06 95 06 92 06     ................
     63e:	8f 06 8c 06 89 06 86 06 83 06 80 06 7d 06 79 06     ............}.y.
     64e:	76 06 73 06 70 06 6d 06 6a 06 67 06 64 06 61 06     v.s.p.m.j.g.d.a.
     65e:	5e 06 5b 06 59 06 56 06 53 06 50 06 4d 06 4a 06     ^.[.Y.V.S.P.M.J.
     66e:	47 06 44 06 41 06 3f 06 3c 06 39 06 36 06 33 06     G.D.A.?.<.9.6.3.
     67e:	31 06 2e 06 2b 06 28 06 25 06 23 06 20 06 1d 06     1...+.(.%.#. ...
     68e:	1b 06 18 06 15 06 12 06 10 06 0d 06 0a 06 08 06     ................
     69e:	05 06 02 06 00 06 fd 05 fb 05 f8 05 f5 05 f3 05     ................
     6ae:	f0 05 ee 05 eb 05 e9 05 e6 05 e4 05 e1 05 df 05     ................
     6be:	dc 05 da 05 d7 05 d5 05 d2 05 d0 05 cd 05 cb 05     ................
     6ce:	c8 05 c6 05 c3 05 c1 05 bf 05 bc 05 ba 05 b7 05     ................
     6de:	b5 05 b3 05 b0 05 ae 05 ac 05 a9 05 a7 05 a5 05     ................
     6ee:	a2 05 a0 05 9e 05 9b 05 99 05 97 05 95 05 92 05     ................
     6fe:	90 05 8e 05 8c 05 89 05 87 05 85 05 83 05 80 05     ................
     70e:	7e 05 7c 05 7a 05 78 05 76 05 73 05 71 05 6f 05     ~.|.z.x.v.s.q.o.
     71e:	6d 05 6b 05 69 05 66 05 64 05 62 05 60 05 5e 05     m.k.i.f.d.b.`.^.
     72e:	5c 05 5a 05 58 05 56 05 54 05 52 05 50 05 4d 05     \.Z.X.V.T.R.P.M.
     73e:	4b 05 49 05 47 05 45 05 43 05 41 05 3f 05 3d 05     K.I.G.E.C.A.?.=.
     74e:	3b 05 39 05 37 05 35 05 33 05 31 05 2f 05 2d 05     ;.9.7.5.3.1./.-.
     75e:	2c 05 2a 05 28 05 26 05 24 05 22 05 20 05 1e 05     ,.*.(.&.$.". ...
     76e:	1c 05 1a 05 18 05 16 05 15 05 13 05 11 05 0f 05     ................
     77e:	0d 05 0b 05 09 05 08 05 06 05 04 05 02 05 00 05     ................
     78e:	fe 04 fd 04 fb 04 f9 04 f7 04 f5 04 f4 04 f2 04     ................
     79e:	f0 04 ee 04 ed 04 eb 04 e9 04 e7 04 e5 04 e4 04     ................
     7ae:	e2 04                                               ..

000007b0 <__ctors_start>:
     7b0:	a1 07       	cpc	r26, r17

000007b2 <__ctors_end>:
     7b2:	11 24       	eor	r1, r1
     7b4:	1f be       	out	0x3f, r1	; 63
     7b6:	cf ef       	ldi	r28, 0xFF	; 255
     7b8:	d1 e2       	ldi	r29, 0x21	; 33
     7ba:	de bf       	out	0x3e, r29	; 62
     7bc:	cd bf       	out	0x3d, r28	; 61
     7be:	00 e0       	ldi	r16, 0x00	; 0
     7c0:	0c bf       	out	0x3c, r16	; 60

000007c2 <__do_copy_data>:
     7c2:	13 e0       	ldi	r17, 0x03	; 3
     7c4:	a0 e0       	ldi	r26, 0x00	; 0
     7c6:	b2 e0       	ldi	r27, 0x02	; 2
     7c8:	e2 ea       	ldi	r30, 0xA2	; 162
     7ca:	f2 e2       	ldi	r31, 0x22	; 34
     7cc:	00 e0       	ldi	r16, 0x00	; 0
     7ce:	0b bf       	out	0x3b, r16	; 59
     7d0:	02 c0       	rjmp	.+4      	; 0x7d6 <__do_copy_data+0x14>
     7d2:	07 90       	elpm	r0, Z+
     7d4:	0d 92       	st	X+, r0
     7d6:	a0 36       	cpi	r26, 0x60	; 96
     7d8:	b1 07       	cpc	r27, r17
     7da:	d9 f7       	brne	.-10     	; 0x7d2 <__do_copy_data+0x10>

000007dc <__do_clear_bss>:
     7dc:	25 e0       	ldi	r18, 0x05	; 5
     7de:	a0 e6       	ldi	r26, 0x60	; 96
     7e0:	b3 e0       	ldi	r27, 0x03	; 3
     7e2:	01 c0       	rjmp	.+2      	; 0x7e6 <.do_clear_bss_start>

000007e4 <.do_clear_bss_loop>:
     7e4:	1d 92       	st	X+, r1

000007e6 <.do_clear_bss_start>:
     7e6:	a1 3d       	cpi	r26, 0xD1	; 209
     7e8:	b2 07       	cpc	r27, r18
     7ea:	e1 f7       	brne	.-8      	; 0x7e4 <.do_clear_bss_loop>

000007ec <__do_global_ctors>:
     7ec:	13 e0       	ldi	r17, 0x03	; 3
     7ee:	c9 ed       	ldi	r28, 0xD9	; 217
     7f0:	d3 e0       	ldi	r29, 0x03	; 3
     7f2:	00 e0       	ldi	r16, 0x00	; 0
     7f4:	06 c0       	rjmp	.+12     	; 0x802 <__do_global_ctors+0x16>
     7f6:	21 97       	sbiw	r28, 0x01	; 1
     7f8:	01 09       	sbc	r16, r1
     7fa:	80 2f       	mov	r24, r16
     7fc:	fe 01       	movw	r30, r28
     7fe:	0e 94 47 11 	call	0x228e	; 0x228e <__tablejump2__>
     802:	c8 3d       	cpi	r28, 0xD8	; 216
     804:	d1 07       	cpc	r29, r17
     806:	80 e0       	ldi	r24, 0x00	; 0
     808:	08 07       	cpc	r16, r24
     80a:	a9 f7       	brne	.-22     	; 0x7f6 <__do_global_ctors+0xa>
     80c:	c8 d3       	rcall	.+1936   	; 0xf9e <main>
     80e:	0c 94 4f 11 	jmp	0x229e	; 0x229e <_exit>

00000812 <__bad_interrupt>:
     812:	f6 cb       	rjmp	.-2068   	; 0x0 <__vectors>

00000814 <setup>:
  public:
    inline HardwareSerial(
      volatile uint8_t *ubrrh, volatile uint8_t *ubrrl,
      volatile uint8_t *ucsra, volatile uint8_t *ucsrb,
      volatile uint8_t *ucsrc, volatile uint8_t *udr);
    void begin(unsigned long baud) { begin(baud, SERIAL_8N1); }
     814:	26 e0       	ldi	r18, 0x06	; 6
     816:	40 e0       	ldi	r20, 0x00	; 0
     818:	51 ee       	ldi	r21, 0xE1	; 225
     81a:	60 e0       	ldi	r22, 0x00	; 0
     81c:	70 e0       	ldi	r23, 0x00	; 0
     81e:	86 e2       	ldi	r24, 0x26	; 38
     820:	95 e0       	ldi	r25, 0x05	; 5
void setup() {
	// put your setup code here, to run once:

	Serial.begin(SERIAL_BAUD);
	
	configPinMotors();
     822:	c2 d2       	rcall	.+1412   	; 0xda8 <_ZN14HardwareSerial5beginEmh>
	pinMode(PIN_LED_NATIVE, OUTPUT);
     824:	59 d6       	rcall	.+3250   	; 0x14d8 <_Z15configPinMotorsv>
     826:	61 e0       	ldi	r22, 0x01	; 1
	pinMode(PIN_LED_BASE_LOCK, OUTPUT);
     828:	8d e0       	ldi	r24, 0x0D	; 13
     82a:	ec d5       	rcall	.+3032   	; 0x1404 <pinMode>
     82c:	61 e0       	ldi	r22, 0x01	; 1
	pinMode(PIN_MONING_LED, OUTPUT);
     82e:	89 e1       	ldi	r24, 0x19	; 25
     830:	e9 d5       	rcall	.+3026   	; 0x1404 <pinMode>
	
	digitalWrite(PIN_LED_NATIVE,LOW);
     832:	61 e0       	ldi	r22, 0x01	; 1
     834:	87 e1       	ldi	r24, 0x17	; 23
     836:	e6 d5       	rcall	.+3020   	; 0x1404 <pinMode>
	digitalWrite(PIN_LED_BASE_LOCK,LOW);
     838:	60 e0       	ldi	r22, 0x00	; 0
     83a:	8d e0       	ldi	r24, 0x0D	; 13
     83c:	1f d6       	rcall	.+3134   	; 0x147c <digitalWrite>
	
	//using a modified version of timer one, for the improvement of program performance and reduce of time execution
	initTimerMbase();
     83e:	60 e0       	ldi	r22, 0x00	; 0
	initTimerMtop();
     840:	89 e1       	ldi	r24, 0x19	; 25
	initTimerAcc();
     842:	1c d6       	rcall	.+3128   	; 0x147c <digitalWrite>
	//enableTimerMbase();
	mTopSetMicroStep(SIXTEENTH_STEP);
     844:	0e 94 25 0d 	call	0x1a4a	; 0x1a4a <_Z14initTimerMbasev>
	digitalWrite(MTOP_STEP,LOW);
     848:	0e 94 93 0d 	call	0x1b26	; 0x1b26 <_Z13initTimerMtopv>
	digitalWrite(MTOP_ENABLE,HIGH);
     84c:	0e 94 c2 0d 	call	0x1b84	; 0x1b84 <_Z12initTimerAccv>
	//digitalWrite(MTOP_ENABLE,LOW);
	digitalWrite(MTOP_RESET,HIGH);
     850:	84 e0       	ldi	r24, 0x04	; 4
	digitalWrite(MTOP_DIR,DIR_POSITIVE);
     852:	96 d6       	rcall	.+3372   	; 0x1580 <_Z16mTopSetMicroStep15TYPE_MICRO_STEP>
     854:	60 e0       	ldi	r22, 0x00	; 0
     856:	87 e0       	ldi	r24, 0x07	; 7

	mBaseSetMicroStep(SIXTEENTH_STEP);
     858:	11 d6       	rcall	.+3106   	; 0x147c <digitalWrite>
     85a:	61 e0       	ldi	r22, 0x01	; 1
	digitalWrite(MBASE_STEP,LOW);
     85c:	8c e0       	ldi	r24, 0x0C	; 12
     85e:	0e d6       	rcall	.+3100   	; 0x147c <digitalWrite>
     860:	61 e0       	ldi	r22, 0x01	; 1
     862:	88 e0       	ldi	r24, 0x08	; 8
	digitalWrite(MBASE_ENABLE,HIGH);
     864:	0b d6       	rcall	.+3094   	; 0x147c <digitalWrite>
     866:	61 e0       	ldi	r22, 0x01	; 1
     868:	86 e0       	ldi	r24, 0x06	; 6
     86a:	08 d6       	rcall	.+3088   	; 0x147c <digitalWrite>
	//digitalWrite(MBASE_ENABLE,LOW);
	digitalWrite(MBASE_RESET,HIGH);
     86c:	84 e0       	ldi	r24, 0x04	; 4
     86e:	5e d6       	rcall	.+3260   	; 0x152c <_Z17mBaseSetMicroStep15TYPE_MICRO_STEP>
     870:	60 e0       	ldi	r22, 0x00	; 0
     872:	88 e1       	ldi	r24, 0x18	; 24
	digitalWrite(MBASE_DIR,DIR_POSITIVE);
     874:	03 d6       	rcall	.+3078   	; 0x147c <digitalWrite>
     876:	61 e0       	ldi	r22, 0x01	; 1
     878:	85 e0       	ldi	r24, 0x05	; 5
     87a:	00 d6       	rcall	.+3072   	; 0x147c <digitalWrite>
	
	gs_base_ctrl.f_dir = DIR_POSITIVE;
     87c:	61 e0       	ldi	r22, 0x01	; 1
     87e:	8a e1       	ldi	r24, 0x1A	; 26
     880:	fd d5       	rcall	.+3066   	; 0x147c <digitalWrite>
	gcs.base_limit = 0;
     882:	61 e0       	ldi	r22, 0x01	; 1
     884:	86 e1       	ldi	r24, 0x16	; 22
     886:	fa d5       	rcall	.+3060   	; 0x147c <digitalWrite>
     888:	81 e0       	ldi	r24, 0x01	; 1
     88a:	80 93 f6 04 	sts	0x04F6, r24	; 0x8004f6 <gs_base_ctrl+0x4>
     88e:	10 92 22 05 	sts	0x0522, r1	; 0x800522 <gcs>
	gfs.state = IDLE;
     892:	10 92 23 05 	sts	0x0523, r1	; 0x800523 <gcs+0x1>
	SET_NATIVE_LED;
     896:	10 92 24 05 	sts	0x0524, r1	; 0x800524 <gcs+0x2>
     89a:	10 92 25 05 	sts	0x0525, r1	; 0x800525 <gcs+0x3>
     89e:	10 92 1e 05 	sts	0x051E, r1	; 0x80051e <gfs>
     8a2:	2f 9a       	sbi	0x05, 7	; 5
     8a4:	08 95       	ret

000008a6 <loop>:
}

void loop() {
     8a6:	cf 92       	push	r12
     8a8:	df 92       	push	r13
     8aa:	ef 92       	push	r14
     8ac:	ff 92       	push	r15
     8ae:	cf 93       	push	r28
     8b0:	df 93       	push	r29
	//check for serial income
	
	if (Serial.available()){
     8b2:	86 e2       	ldi	r24, 0x26	; 38
     8b4:	95 e0       	ldi	r25, 0x05	; 5
     8b6:	77 d1       	rcall	.+750    	; 0xba6 <_ZN14HardwareSerial9availableEv>
     8b8:	89 2b       	or	r24, r25
		treatSerialIncome();
     8ba:	09 f0       	breq	.+2      	; 0x8be <loop+0x18>
     8bc:	f3 d7       	rcall	.+4070   	; 0x18a4 <_Z17treatSerialIncomev>
	
	//here we will do the decodification and all the calculations to start turning the motors
	//remembering the protocol:
	// HEADER1, HEADER2, S_BASE_HIGH, S_BASE_LOW, N_BASE_HIGH, N_BASE_LOW, S_TOP_HIGH, S_TOP_LOW, N_TOP_HIGH, N_TOP_LOW, ...N*8 Bytes ..., 0x80, 0x00, 0x00, 0x00, 0x80, 0x00, 0x00, 0x00
	//                int16_t         uint16_t           int16_t          uint16_t                      END_MSG	- MATLAB SENDS FIRST THE LOW BYTE
	if((gs_base_ctrl.f_rdy_4_command == 1)&&(gs_top_ctrl.f_rdy_4_command == 1)){
     8be:	80 91 f2 04 	lds	r24, 0x04F2	; 0x8004f2 <gs_base_ctrl>
     8c2:	88 23       	and	r24, r24
     8c4:	09 f4       	brne	.+2      	; 0x8c8 <loop+0x22>
     8c6:	eb c0       	rjmp	.+470    	; 0xa9e <loop+0x1f8>
     8c8:	80 91 08 05 	lds	r24, 0x0508	; 0x800508 <gs_top_ctrl>
     8cc:	88 23       	and	r24, r24
     8ce:	09 f4       	brne	.+2      	; 0x8d2 <loop+0x2c>
		uint8_t keep_turning_base, keep_turning_top;
		readNewSetCommands();					//get the commands for next speed and number of steps for the both motor
     8d0:	e6 c0       	rjmp	.+460    	; 0xa9e <loop+0x1f8>
     8d2:	cd d6       	rcall	.+3482   	; 0x166e <_Z18readNewSetCommandsv>
		gs_base_ctrl.f_rdy_4_command = 0;
     8d4:	10 92 f2 04 	sts	0x04F2, r1	; 0x8004f2 <gs_base_ctrl>
		gs_top_ctrl.f_rdy_4_command = 0;
     8d8:	10 92 08 05 	sts	0x0508, r1	; 0x800508 <gs_top_ctrl>
		
		#ifdef _DEBUG
		Serial.println("nova vel:");
     8dc:	60 e0       	ldi	r22, 0x00	; 0
     8de:	72 e0       	ldi	r23, 0x02	; 2
     8e0:	86 e2       	ldi	r24, 0x26	; 38
     8e2:	95 e0       	ldi	r25, 0x05	; 5
     8e4:	af d3       	rcall	.+1886   	; 0x1044 <_ZN5Print7printlnEPKc>
		Serial.println(gs_base_ctrl.prog_speed);
     8e6:	60 91 fa 04 	lds	r22, 0x04FA	; 0x8004fa <gs_base_ctrl+0x8>
     8ea:	70 91 fb 04 	lds	r23, 0x04FB	; 0x8004fb <gs_base_ctrl+0x9>
     8ee:	4a e0       	ldi	r20, 0x0A	; 10
     8f0:	50 e0       	ldi	r21, 0x00	; 0
     8f2:	86 e2       	ldi	r24, 0x26	; 38
     8f4:	95 e0       	ldi	r25, 0x05	; 5
// 		Serial.write(lo8(gs_base_ctrl.prog_speed));
// 		Serial.write(hi8(gs_base_ctrl.prog_speed));

		#endif // _DEBUG
		
		keep_turning_base = processCommands(&gs_base_ctrl);		//calculate how many steps we must do to reach the end of acceleration, how many to start deceleration, the cruse speed and the direction
     8f6:	6a d4       	rcall	.+2260   	; 0x11cc <_ZN5Print7printlnEii>
     8f8:	82 ef       	ldi	r24, 0xF2	; 242
     8fa:	94 e0       	ldi	r25, 0x04	; 4
     8fc:	f2 d6       	rcall	.+3556   	; 0x16e2 <_Z15processCommandsP12s_motor_ctrl>
		keep_turning_top = processCommands(&gs_top_ctrl);
     8fe:	d8 2f       	mov	r29, r24
     900:	88 e0       	ldi	r24, 0x08	; 8
     902:	95 e0       	ldi	r25, 0x05	; 5
     904:	ee d6       	rcall	.+3548   	; 0x16e2 <_Z15processCommandsP12s_motor_ctrl>
		gfs.rdy_to_rotate = 1;
     906:	c8 2f       	mov	r28, r24
     908:	81 e0       	ldi	r24, 0x01	; 1
		
		digitalWrite(MBASE_ENABLE,LOW);			//enabling the drivers
     90a:	80 93 21 05 	sts	0x0521, r24	; 0x800521 <gfs+0x3>
     90e:	60 e0       	ldi	r22, 0x00	; 0
		digitalWrite(MTOP_ENABLE,LOW);
     910:	85 e0       	ldi	r24, 0x05	; 5
     912:	b4 d5       	rcall	.+2920   	; 0x147c <digitalWrite>
     914:	60 e0       	ldi	r22, 0x00	; 0
		
		digitalWrite(MBASE_DIR,gs_base_ctrl.f_dir);
     916:	8c e0       	ldi	r24, 0x0C	; 12
     918:	b1 d5       	rcall	.+2914   	; 0x147c <digitalWrite>
     91a:	60 91 f6 04 	lds	r22, 0x04F6	; 0x8004f6 <gs_base_ctrl+0x4>
     91e:	86 e1       	ldi	r24, 0x16	; 22
		digitalWrite(MTOP_DIR,gs_top_ctrl.f_dir);
     920:	ad d5       	rcall	.+2906   	; 0x147c <digitalWrite>
     922:	60 91 0c 05 	lds	r22, 0x050C	; 0x80050c <gs_top_ctrl+0x4>
     926:	86 e0       	ldi	r24, 0x06	; 6
     928:	a9 d5       	rcall	.+2898   	; 0x147c <digitalWrite>
     92a:	80 91 1e 05 	lds	r24, 0x051E	; 0x80051e <gfs>
		
		if((keep_turning_base == 1)&&(keep_turning_top == 1)&&(gfs.state == ROTATING)){	//The rotating status is given at treatSerialIncome(void) when an "St" is received
     92e:	d1 30       	cpi	r29, 0x01	; 1
     930:	09 f0       	breq	.+2      	; 0x934 <loop+0x8e>
     932:	86 c0       	rjmp	.+268    	; 0xa40 <loop+0x19a>
     934:	c1 30       	cpi	r28, 0x01	; 1
     936:	09 f0       	breq	.+2      	; 0x93a <loop+0x94>
     938:	83 c0       	rjmp	.+262    	; 0xa40 <loop+0x19a>
     93a:	81 30       	cpi	r24, 0x01	; 1
			#ifdef _DEBUG
				Serial.println("Continuar rodando");
     93c:	09 f0       	breq	.+2      	; 0x940 <loop+0x9a>
     93e:	80 c0       	rjmp	.+256    	; 0xa40 <loop+0x19a>
     940:	6a e0       	ldi	r22, 0x0A	; 10
     942:	72 e0       	ldi	r23, 0x02	; 2
     944:	86 e2       	ldi	r24, 0x26	; 38
     946:	95 e0       	ldi	r25, 0x05	; 5
			#endif // _DEBUG
			
			if (abs(gs_base_ctrl.prog_speed)>=INITIAL_SPEED){gs_base_ctrl.speed = INITIAL_SPEED;}		//TODO:: VERIFICAR A NECESSIDADE DISTO AQUI, J√Å DEVE TER SIDO FEITO EM PROCESSCOMMANDS
     948:	7d d3       	rcall	.+1786   	; 0x1044 <_ZN5Print7printlnEPKc>
     94a:	80 91 fa 04 	lds	r24, 0x04FA	; 0x8004fa <gs_base_ctrl+0x8>
     94e:	90 91 fb 04 	lds	r25, 0x04FB	; 0x8004fb <gs_base_ctrl+0x9>
     952:	97 ff       	sbrs	r25, 7
     954:	03 c0       	rjmp	.+6      	; 0x95c <loop+0xb6>
     956:	91 95       	neg	r25
     958:	81 95       	neg	r24
     95a:	91 09       	sbc	r25, r1
     95c:	0a 97       	sbiw	r24, 0x0a	; 10
     95e:	6c f0       	brlt	.+26     	; 0x97a <loop+0xd4>
     960:	80 e0       	ldi	r24, 0x00	; 0
     962:	90 e0       	ldi	r25, 0x00	; 0
     964:	a0 e2       	ldi	r26, 0x20	; 32
     966:	b1 e4       	ldi	r27, 0x41	; 65
     968:	80 93 04 05 	sts	0x0504, r24	; 0x800504 <gs_base_ctrl+0x12>
     96c:	90 93 05 05 	sts	0x0505, r25	; 0x800505 <gs_base_ctrl+0x13>
     970:	a0 93 06 05 	sts	0x0506, r26	; 0x800506 <gs_base_ctrl+0x14>
     974:	b0 93 07 05 	sts	0x0507, r27	; 0x800507 <gs_base_ctrl+0x15>
				else{										 gs_base_ctrl.speed = 0;}
     978:	08 c0       	rjmp	.+16     	; 0x98a <loop+0xe4>
     97a:	10 92 04 05 	sts	0x0504, r1	; 0x800504 <gs_base_ctrl+0x12>
     97e:	10 92 05 05 	sts	0x0505, r1	; 0x800505 <gs_base_ctrl+0x13>
     982:	10 92 06 05 	sts	0x0506, r1	; 0x800506 <gs_base_ctrl+0x14>
     986:	10 92 07 05 	sts	0x0507, r1	; 0x800507 <gs_base_ctrl+0x15>
			updateMbaseSpeed((abs(gs_base_ctrl.speed)));
     98a:	c0 90 04 05 	lds	r12, 0x0504	; 0x800504 <gs_base_ctrl+0x12>
     98e:	d0 90 05 05 	lds	r13, 0x0505	; 0x800505 <gs_base_ctrl+0x13>
     992:	e0 90 06 05 	lds	r14, 0x0506	; 0x800506 <gs_base_ctrl+0x14>
     996:	f0 90 07 05 	lds	r15, 0x0507	; 0x800507 <gs_base_ctrl+0x15>
     99a:	20 e0       	ldi	r18, 0x00	; 0
     99c:	30 e0       	ldi	r19, 0x00	; 0
     99e:	a9 01       	movw	r20, r18
     9a0:	c7 01       	movw	r24, r14
     9a2:	b6 01       	movw	r22, r12
     9a4:	d8 d0       	rcall	.+432    	; 0xb56 <__gesf2>
     9a6:	18 16       	cp	r1, r24
     9a8:	1c f4       	brge	.+6      	; 0x9b0 <loop+0x10a>
     9aa:	c7 01       	movw	r24, r14
     9ac:	b6 01       	movw	r22, r12
     9ae:	03 c0       	rjmp	.+6      	; 0x9b6 <loop+0x110>
     9b0:	c7 01       	movw	r24, r14
     9b2:	b6 01       	movw	r22, r12
     9b4:	90 58       	subi	r25, 0x80	; 128
     9b6:	7a d0       	rcall	.+244    	; 0xaac <__fixunssfsi>
     9b8:	cb 01       	movw	r24, r22
     9ba:	0e 94 e6 0c 	call	0x19cc	; 0x19cc <_Z16updateMbaseSpeedj>
			enableTimerMbase();
     9be:	0e 94 38 0d 	call	0x1a70	; 0x1a70 <_Z16enableTimerMbasev>
			
			if (abs(gs_top_ctrl.prog_speed)>=INITIAL_SPEED){gs_top_ctrl.speed = INITIAL_SPEED;}
     9c2:	80 91 10 05 	lds	r24, 0x0510	; 0x800510 <gs_top_ctrl+0x8>
     9c6:	90 91 11 05 	lds	r25, 0x0511	; 0x800511 <gs_top_ctrl+0x9>
     9ca:	97 ff       	sbrs	r25, 7
     9cc:	03 c0       	rjmp	.+6      	; 0x9d4 <loop+0x12e>
     9ce:	91 95       	neg	r25
     9d0:	81 95       	neg	r24
     9d2:	91 09       	sbc	r25, r1
     9d4:	0a 97       	sbiw	r24, 0x0a	; 10
     9d6:	6c f0       	brlt	.+26     	; 0x9f2 <loop+0x14c>
     9d8:	80 e0       	ldi	r24, 0x00	; 0
     9da:	90 e0       	ldi	r25, 0x00	; 0
     9dc:	a0 e2       	ldi	r26, 0x20	; 32
     9de:	b1 e4       	ldi	r27, 0x41	; 65
     9e0:	80 93 1a 05 	sts	0x051A, r24	; 0x80051a <gs_top_ctrl+0x12>
     9e4:	90 93 1b 05 	sts	0x051B, r25	; 0x80051b <gs_top_ctrl+0x13>
     9e8:	a0 93 1c 05 	sts	0x051C, r26	; 0x80051c <gs_top_ctrl+0x14>
     9ec:	b0 93 1d 05 	sts	0x051D, r27	; 0x80051d <gs_top_ctrl+0x15>
			else{											gs_top_ctrl.speed = 0;}
     9f0:	08 c0       	rjmp	.+16     	; 0xa02 <loop+0x15c>
     9f2:	10 92 1a 05 	sts	0x051A, r1	; 0x80051a <gs_top_ctrl+0x12>
     9f6:	10 92 1b 05 	sts	0x051B, r1	; 0x80051b <gs_top_ctrl+0x13>
     9fa:	10 92 1c 05 	sts	0x051C, r1	; 0x80051c <gs_top_ctrl+0x14>
			updateMtopSpeed((abs(gs_top_ctrl.speed)));
     9fe:	10 92 1d 05 	sts	0x051D, r1	; 0x80051d <gs_top_ctrl+0x15>
     a02:	c0 90 1a 05 	lds	r12, 0x051A	; 0x80051a <gs_top_ctrl+0x12>
     a06:	d0 90 1b 05 	lds	r13, 0x051B	; 0x80051b <gs_top_ctrl+0x13>
     a0a:	e0 90 1c 05 	lds	r14, 0x051C	; 0x80051c <gs_top_ctrl+0x14>
     a0e:	f0 90 1d 05 	lds	r15, 0x051D	; 0x80051d <gs_top_ctrl+0x15>
     a12:	20 e0       	ldi	r18, 0x00	; 0
     a14:	30 e0       	ldi	r19, 0x00	; 0
     a16:	a9 01       	movw	r20, r18
     a18:	c7 01       	movw	r24, r14
     a1a:	b6 01       	movw	r22, r12
     a1c:	9c d0       	rcall	.+312    	; 0xb56 <__gesf2>
     a1e:	18 16       	cp	r1, r24
     a20:	1c f4       	brge	.+6      	; 0xa28 <loop+0x182>
     a22:	c7 01       	movw	r24, r14
     a24:	b6 01       	movw	r22, r12
     a26:	03 c0       	rjmp	.+6      	; 0xa2e <loop+0x188>
     a28:	c7 01       	movw	r24, r14
     a2a:	b6 01       	movw	r22, r12
     a2c:	90 58       	subi	r25, 0x80	; 128
     a2e:	3e d0       	rcall	.+124    	; 0xaac <__fixunssfsi>
			enableTimerMtop();
     a30:	cb 01       	movw	r24, r22
     a32:	0e 94 54 0d 	call	0x1aa8	; 0x1aa8 <_Z15updateMtopSpeedj>
			enableTimerAcc();
     a36:	0e 94 a6 0d 	call	0x1b4c	; 0x1b4c <_Z15enableTimerMtopv>
		}
		else{
			#ifdef _DEBUG
			if(gfs.state == ROTATING)	{
     a3a:	0e 94 d0 0d 	call	0x1ba0	; 0x1ba0 <_Z14enableTimerAccv>
				Serial.println("terminando o controle:");
     a3e:	2f c0       	rjmp	.+94     	; 0xa9e <loop+0x1f8>
     a40:	81 30       	cpi	r24, 0x01	; 1
     a42:	19 f4       	brne	.+6      	; 0xa4a <loop+0x1a4>
			}
			else{
				Serial.println("aguardando St");
     a44:	6c e1       	ldi	r22, 0x1C	; 28
     a46:	72 e0       	ldi	r23, 0x02	; 2
     a48:	02 c0       	rjmp	.+4      	; 0xa4e <loop+0x1a8>
     a4a:	63 e3       	ldi	r22, 0x33	; 51
     a4c:	72 e0       	ldi	r23, 0x02	; 2
     a4e:	86 e2       	ldi	r24, 0x26	; 38
			}
			#endif // _DEBUG
			if (gfs.state == ROTATING){
     a50:	95 e0       	ldi	r25, 0x05	; 5
     a52:	f8 d2       	rcall	.+1520   	; 0x1044 <_ZN5Print7printlnEPKc>
     a54:	80 91 1e 05 	lds	r24, 0x051E	; 0x80051e <gfs>
				gfs.state = IDLE;
     a58:	81 30       	cpi	r24, 0x01	; 1
     a5a:	09 f5       	brne	.+66     	; 0xa9e <loop+0x1f8>
				gc_ctrl_com = 0;
     a5c:	10 92 1e 05 	sts	0x051E, r1	; 0x80051e <gfs>
     a60:	10 92 61 03 	sts	0x0361, r1	; 0x800361 <__data_end+0x1>
				gs_base_ctrl.c_steps_made = 0;
     a64:	10 92 60 03 	sts	0x0360, r1	; 0x800360 <__data_end>
     a68:	10 92 03 05 	sts	0x0503, r1	; 0x800503 <gs_base_ctrl+0x11>
				gs_base_ctrl.speed = 0;
     a6c:	10 92 02 05 	sts	0x0502, r1	; 0x800502 <gs_base_ctrl+0x10>
     a70:	10 92 04 05 	sts	0x0504, r1	; 0x800504 <gs_base_ctrl+0x12>
     a74:	10 92 05 05 	sts	0x0505, r1	; 0x800505 <gs_base_ctrl+0x13>
				cli();					//avoid going into the rx interruption when disabling the timer 1 here
     a78:	10 92 06 05 	sts	0x0506, r1	; 0x800506 <gs_base_ctrl+0x14>
				disableTimerMbase();
     a7c:	10 92 07 05 	sts	0x0507, r1	; 0x800507 <gs_base_ctrl+0x15>
				disableTimerMtop();
				disableTimerAcc();
     a80:	f8 94       	cli
				sei();
     a82:	0e 94 4a 0d 	call	0x1a94	; 0x1a94 <_Z17disableTimerMbasev>
				digitalWrite(MBASE_ENABLE,HIGH);			//disabling the drivers
     a86:	0e 94 b8 0d 	call	0x1b70	; 0x1b70 <_Z16disableTimerMtopv>
     a8a:	0e 94 dd 0d 	call	0x1bba	; 0x1bba <_Z15disableTimerAccv>
				digitalWrite(MTOP_ENABLE,HIGH);
     a8e:	78 94       	sei
     a90:	61 e0       	ldi	r22, 0x01	; 1
     a92:	85 e0       	ldi	r24, 0x05	; 5
				CLEAR_MOVING_LED_PIN;
     a94:	f3 d4       	rcall	.+2534   	; 0x147c <digitalWrite>
			//SET_NATIVE_LED;
		}
	}
	
	checkBaseBlock();
}
     a96:	61 e0       	ldi	r22, 0x01	; 1
     a98:	8c e0       	ldi	r24, 0x0C	; 12
     a9a:	f0 d4       	rcall	.+2528   	; 0x147c <digitalWrite>
     a9c:	11 98       	cbi	0x02, 1	; 2
     a9e:	df 91       	pop	r29
     aa0:	cf 91       	pop	r28
			}
			//SET_NATIVE_LED;
		}
	}
	
	checkBaseBlock();
     aa2:	ff 90       	pop	r15
     aa4:	ef 90       	pop	r14
     aa6:	df 90       	pop	r13
     aa8:	cf 90       	pop	r12
     aaa:	94 c5       	rjmp	.+2856   	; 0x15d4 <_Z14checkBaseBlockv>

00000aac <__fixunssfsi>:
     aac:	33 d0       	rcall	.+102    	; 0xb14 <__fp_splitA>
     aae:	88 f0       	brcs	.+34     	; 0xad2 <__fixunssfsi+0x26>
     ab0:	9f 57       	subi	r25, 0x7F	; 127
     ab2:	90 f0       	brcs	.+36     	; 0xad8 <__fixunssfsi+0x2c>
     ab4:	b9 2f       	mov	r27, r25
     ab6:	99 27       	eor	r25, r25
     ab8:	b7 51       	subi	r27, 0x17	; 23
     aba:	a0 f0       	brcs	.+40     	; 0xae4 <__fixunssfsi+0x38>
     abc:	d1 f0       	breq	.+52     	; 0xaf2 <__fixunssfsi+0x46>
     abe:	66 0f       	add	r22, r22
     ac0:	77 1f       	adc	r23, r23
     ac2:	88 1f       	adc	r24, r24
     ac4:	99 1f       	adc	r25, r25
     ac6:	1a f0       	brmi	.+6      	; 0xace <__fixunssfsi+0x22>
     ac8:	ba 95       	dec	r27
     aca:	c9 f7       	brne	.-14     	; 0xabe <__fixunssfsi+0x12>
     acc:	12 c0       	rjmp	.+36     	; 0xaf2 <__fixunssfsi+0x46>
     ace:	b1 30       	cpi	r27, 0x01	; 1
     ad0:	81 f0       	breq	.+32     	; 0xaf2 <__fixunssfsi+0x46>
     ad2:	3a d0       	rcall	.+116    	; 0xb48 <__fp_zero>
     ad4:	b1 e0       	ldi	r27, 0x01	; 1
     ad6:	08 95       	ret
     ad8:	37 c0       	rjmp	.+110    	; 0xb48 <__fp_zero>
     ada:	67 2f       	mov	r22, r23
     adc:	78 2f       	mov	r23, r24
     ade:	88 27       	eor	r24, r24
     ae0:	b8 5f       	subi	r27, 0xF8	; 248
     ae2:	39 f0       	breq	.+14     	; 0xaf2 <__fixunssfsi+0x46>
     ae4:	b9 3f       	cpi	r27, 0xF9	; 249
     ae6:	cc f3       	brlt	.-14     	; 0xada <__fixunssfsi+0x2e>
     ae8:	86 95       	lsr	r24
     aea:	77 95       	ror	r23
     aec:	67 95       	ror	r22
     aee:	b3 95       	inc	r27
     af0:	d9 f7       	brne	.-10     	; 0xae8 <__fixunssfsi+0x3c>
     af2:	3e f4       	brtc	.+14     	; 0xb02 <__fixunssfsi+0x56>
     af4:	90 95       	com	r25
     af6:	80 95       	com	r24
     af8:	70 95       	com	r23
     afa:	61 95       	neg	r22
     afc:	7f 4f       	sbci	r23, 0xFF	; 255
     afe:	8f 4f       	sbci	r24, 0xFF	; 255
     b00:	9f 4f       	sbci	r25, 0xFF	; 255
     b02:	08 95       	ret

00000b04 <__fp_split3>:
     b04:	57 fd       	sbrc	r21, 7
     b06:	90 58       	subi	r25, 0x80	; 128
     b08:	44 0f       	add	r20, r20
     b0a:	55 1f       	adc	r21, r21
     b0c:	59 f0       	breq	.+22     	; 0xb24 <__fp_splitA+0x10>
     b0e:	5f 3f       	cpi	r21, 0xFF	; 255
     b10:	71 f0       	breq	.+28     	; 0xb2e <__fp_splitA+0x1a>
     b12:	47 95       	ror	r20

00000b14 <__fp_splitA>:
     b14:	88 0f       	add	r24, r24
     b16:	97 fb       	bst	r25, 7
     b18:	99 1f       	adc	r25, r25
     b1a:	61 f0       	breq	.+24     	; 0xb34 <__fp_splitA+0x20>
     b1c:	9f 3f       	cpi	r25, 0xFF	; 255
     b1e:	79 f0       	breq	.+30     	; 0xb3e <__fp_splitA+0x2a>
     b20:	87 95       	ror	r24
     b22:	08 95       	ret
     b24:	12 16       	cp	r1, r18
     b26:	13 06       	cpc	r1, r19
     b28:	14 06       	cpc	r1, r20
     b2a:	55 1f       	adc	r21, r21
     b2c:	f2 cf       	rjmp	.-28     	; 0xb12 <__fp_split3+0xe>
     b2e:	46 95       	lsr	r20
     b30:	f1 df       	rcall	.-30     	; 0xb14 <__fp_splitA>
     b32:	08 c0       	rjmp	.+16     	; 0xb44 <__fp_splitA+0x30>
     b34:	16 16       	cp	r1, r22
     b36:	17 06       	cpc	r1, r23
     b38:	18 06       	cpc	r1, r24
     b3a:	99 1f       	adc	r25, r25
     b3c:	f1 cf       	rjmp	.-30     	; 0xb20 <__fp_splitA+0xc>
     b3e:	86 95       	lsr	r24
     b40:	71 05       	cpc	r23, r1
     b42:	61 05       	cpc	r22, r1
     b44:	08 94       	sec
     b46:	08 95       	ret

00000b48 <__fp_zero>:
     b48:	e8 94       	clt

00000b4a <__fp_szero>:
     b4a:	bb 27       	eor	r27, r27
     b4c:	66 27       	eor	r22, r22
     b4e:	77 27       	eor	r23, r23
     b50:	cb 01       	movw	r24, r22
     b52:	97 f9       	bld	r25, 7
     b54:	08 95       	ret

00000b56 <__gesf2>:
     b56:	03 d0       	rcall	.+6      	; 0xb5e <__fp_cmp>
     b58:	08 f4       	brcc	.+2      	; 0xb5c <__gesf2+0x6>
     b5a:	8f ef       	ldi	r24, 0xFF	; 255
     b5c:	08 95       	ret

00000b5e <__fp_cmp>:
     b5e:	99 0f       	add	r25, r25
     b60:	00 08       	sbc	r0, r0
     b62:	55 0f       	add	r21, r21
     b64:	aa 0b       	sbc	r26, r26
     b66:	e0 e8       	ldi	r30, 0x80	; 128
     b68:	fe ef       	ldi	r31, 0xFE	; 254
     b6a:	16 16       	cp	r1, r22
     b6c:	17 06       	cpc	r1, r23
     b6e:	e8 07       	cpc	r30, r24
     b70:	f9 07       	cpc	r31, r25
     b72:	c0 f0       	brcs	.+48     	; 0xba4 <__fp_cmp+0x46>
     b74:	12 16       	cp	r1, r18
     b76:	13 06       	cpc	r1, r19
     b78:	e4 07       	cpc	r30, r20
     b7a:	f5 07       	cpc	r31, r21
     b7c:	98 f0       	brcs	.+38     	; 0xba4 <__fp_cmp+0x46>
     b7e:	62 1b       	sub	r22, r18
     b80:	73 0b       	sbc	r23, r19
     b82:	84 0b       	sbc	r24, r20
     b84:	95 0b       	sbc	r25, r21
     b86:	39 f4       	brne	.+14     	; 0xb96 <__fp_cmp+0x38>
     b88:	0a 26       	eor	r0, r26
     b8a:	61 f0       	breq	.+24     	; 0xba4 <__fp_cmp+0x46>
     b8c:	23 2b       	or	r18, r19
     b8e:	24 2b       	or	r18, r20
     b90:	25 2b       	or	r18, r21
     b92:	21 f4       	brne	.+8      	; 0xb9c <__fp_cmp+0x3e>
     b94:	08 95       	ret
     b96:	0a 26       	eor	r0, r26
     b98:	09 f4       	brne	.+2      	; 0xb9c <__fp_cmp+0x3e>
     b9a:	a1 40       	sbci	r26, 0x01	; 1
     b9c:	a6 95       	lsr	r26
     b9e:	8f ef       	ldi	r24, 0xFF	; 255
     ba0:	81 1d       	adc	r24, r1
     ba2:	81 1d       	adc	r24, r1
     ba4:	08 95       	ret

00000ba6 <_ZN14HardwareSerial9availableEv>:
     ba6:	fc 01       	movw	r30, r24
     ba8:	91 8d       	ldd	r25, Z+25	; 0x19
     baa:	22 8d       	ldd	r18, Z+26	; 0x1a
     bac:	89 2f       	mov	r24, r25
     bae:	90 e0       	ldi	r25, 0x00	; 0
     bb0:	80 5c       	subi	r24, 0xC0	; 192
     bb2:	9f 4f       	sbci	r25, 0xFF	; 255
     bb4:	82 1b       	sub	r24, r18
     bb6:	91 09       	sbc	r25, r1
     bb8:	8f 73       	andi	r24, 0x3F	; 63
     bba:	99 27       	eor	r25, r25
     bbc:	08 95       	ret

00000bbe <_ZN14HardwareSerial4peekEv>:
     bbe:	fc 01       	movw	r30, r24
     bc0:	91 8d       	ldd	r25, Z+25	; 0x19
     bc2:	82 8d       	ldd	r24, Z+26	; 0x1a
     bc4:	98 17       	cp	r25, r24
     bc6:	31 f0       	breq	.+12     	; 0xbd4 <_ZN14HardwareSerial4peekEv+0x16>
     bc8:	82 8d       	ldd	r24, Z+26	; 0x1a
     bca:	e8 0f       	add	r30, r24
     bcc:	f1 1d       	adc	r31, r1
     bce:	85 8d       	ldd	r24, Z+29	; 0x1d
     bd0:	90 e0       	ldi	r25, 0x00	; 0
     bd2:	08 95       	ret
     bd4:	8f ef       	ldi	r24, 0xFF	; 255
     bd6:	9f ef       	ldi	r25, 0xFF	; 255
     bd8:	08 95       	ret

00000bda <_ZN14HardwareSerial4readEv>:
     bda:	fc 01       	movw	r30, r24
     bdc:	91 8d       	ldd	r25, Z+25	; 0x19
     bde:	82 8d       	ldd	r24, Z+26	; 0x1a
     be0:	98 17       	cp	r25, r24
     be2:	61 f0       	breq	.+24     	; 0xbfc <_ZN14HardwareSerial4readEv+0x22>
     be4:	82 8d       	ldd	r24, Z+26	; 0x1a
     be6:	df 01       	movw	r26, r30
     be8:	a8 0f       	add	r26, r24
     bea:	b1 1d       	adc	r27, r1
     bec:	5d 96       	adiw	r26, 0x1d	; 29
     bee:	8c 91       	ld	r24, X
     bf0:	92 8d       	ldd	r25, Z+26	; 0x1a
     bf2:	9f 5f       	subi	r25, 0xFF	; 255
     bf4:	9f 73       	andi	r25, 0x3F	; 63
     bf6:	92 8f       	std	Z+26, r25	; 0x1a
     bf8:	90 e0       	ldi	r25, 0x00	; 0
     bfa:	08 95       	ret
     bfc:	8f ef       	ldi	r24, 0xFF	; 255
     bfe:	9f ef       	ldi	r25, 0xFF	; 255
     c00:	08 95       	ret

00000c02 <_ZN14HardwareSerial17availableForWriteEv>:
     c02:	fc 01       	movw	r30, r24
     c04:	53 8d       	ldd	r21, Z+27	; 0x1b
     c06:	44 8d       	ldd	r20, Z+28	; 0x1c
     c08:	25 2f       	mov	r18, r21
     c0a:	30 e0       	ldi	r19, 0x00	; 0
     c0c:	84 2f       	mov	r24, r20
     c0e:	90 e0       	ldi	r25, 0x00	; 0
     c10:	82 1b       	sub	r24, r18
     c12:	93 0b       	sbc	r25, r19
     c14:	54 17       	cp	r21, r20
     c16:	10 f0       	brcs	.+4      	; 0xc1c <_ZN14HardwareSerial17availableForWriteEv+0x1a>
     c18:	cf 96       	adiw	r24, 0x3f	; 63
     c1a:	08 95       	ret
     c1c:	01 97       	sbiw	r24, 0x01	; 1
     c1e:	08 95       	ret

00000c20 <_Z14serialEventRunv>:
     c20:	88 e9       	ldi	r24, 0x98	; 152
     c22:	97 e0       	ldi	r25, 0x07	; 7
     c24:	89 2b       	or	r24, r25
     c26:	39 f0       	breq	.+14     	; 0xc36 <_Z14serialEventRunv+0x16>
     c28:	80 e0       	ldi	r24, 0x00	; 0
     c2a:	90 e0       	ldi	r25, 0x00	; 0
     c2c:	89 2b       	or	r24, r25
     c2e:	19 f0       	breq	.+6      	; 0xc36 <_Z14serialEventRunv+0x16>
     c30:	7f d1       	rcall	.+766    	; 0xf30 <_Z17Serial0_availablev>
     c32:	81 11       	cpse	r24, r1
     c34:	25 c0       	rjmp	.+74     	; 0xc80 <_Z14serialEventRunv+0x60>
     c36:	80 e0       	ldi	r24, 0x00	; 0
     c38:	90 e0       	ldi	r25, 0x00	; 0
     c3a:	89 2b       	or	r24, r25
     c3c:	41 f0       	breq	.+16     	; 0xc4e <_Z14serialEventRunv+0x2e>
     c3e:	80 e0       	ldi	r24, 0x00	; 0
     c40:	90 e0       	ldi	r25, 0x00	; 0
     c42:	89 2b       	or	r24, r25
     c44:	21 f0       	breq	.+8      	; 0xc4e <_Z14serialEventRunv+0x2e>
     c46:	0e 94 00 00 	call	0	; 0x0 <__vectors>
     c4a:	81 11       	cpse	r24, r1
     c4c:	1c c0       	rjmp	.+56     	; 0xc86 <_Z14serialEventRunv+0x66>
     c4e:	80 e0       	ldi	r24, 0x00	; 0
     c50:	90 e0       	ldi	r25, 0x00	; 0
     c52:	89 2b       	or	r24, r25
     c54:	41 f0       	breq	.+16     	; 0xc66 <_Z14serialEventRunv+0x46>
     c56:	80 e0       	ldi	r24, 0x00	; 0
     c58:	90 e0       	ldi	r25, 0x00	; 0
     c5a:	89 2b       	or	r24, r25
     c5c:	21 f0       	breq	.+8      	; 0xc66 <_Z14serialEventRunv+0x46>
     c5e:	0e 94 00 00 	call	0	; 0x0 <__vectors>
     c62:	81 11       	cpse	r24, r1
     c64:	13 c0       	rjmp	.+38     	; 0xc8c <_Z14serialEventRunv+0x6c>
     c66:	80 e0       	ldi	r24, 0x00	; 0
     c68:	90 e0       	ldi	r25, 0x00	; 0
     c6a:	89 2b       	or	r24, r25
     c6c:	a1 f0       	breq	.+40     	; 0xc96 <_Z14serialEventRunv+0x76>
     c6e:	80 e0       	ldi	r24, 0x00	; 0
     c70:	90 e0       	ldi	r25, 0x00	; 0
     c72:	89 2b       	or	r24, r25
     c74:	81 f0       	breq	.+32     	; 0xc96 <_Z14serialEventRunv+0x76>
     c76:	0e 94 00 00 	call	0	; 0x0 <__vectors>
     c7a:	81 11       	cpse	r24, r1
     c7c:	0a c0       	rjmp	.+20     	; 0xc92 <_Z14serialEventRunv+0x72>
     c7e:	08 95       	ret
     c80:	0e 94 00 00 	call	0	; 0x0 <__vectors>
     c84:	d8 cf       	rjmp	.-80     	; 0xc36 <_Z14serialEventRunv+0x16>
     c86:	0e 94 00 00 	call	0	; 0x0 <__vectors>
     c8a:	e1 cf       	rjmp	.-62     	; 0xc4e <_Z14serialEventRunv+0x2e>
     c8c:	0e 94 00 00 	call	0	; 0x0 <__vectors>
     c90:	ea cf       	rjmp	.-44     	; 0xc66 <_Z14serialEventRunv+0x46>
     c92:	0c 94 00 00 	jmp	0	; 0x0 <__vectors>
     c96:	08 95       	ret

00000c98 <_ZN14HardwareSerial17_tx_udr_empty_irqEv>:
     c98:	fc 01       	movw	r30, r24
     c9a:	84 8d       	ldd	r24, Z+28	; 0x1c
     c9c:	df 01       	movw	r26, r30
     c9e:	a8 0f       	add	r26, r24
     ca0:	b1 1d       	adc	r27, r1
     ca2:	a3 5a       	subi	r26, 0xA3	; 163
     ca4:	bf 4f       	sbci	r27, 0xFF	; 255
     ca6:	2c 91       	ld	r18, X
     ca8:	84 8d       	ldd	r24, Z+28	; 0x1c
     caa:	90 e0       	ldi	r25, 0x00	; 0
     cac:	01 96       	adiw	r24, 0x01	; 1
     cae:	8f 73       	andi	r24, 0x3F	; 63
     cb0:	99 27       	eor	r25, r25
     cb2:	84 8f       	std	Z+28, r24	; 0x1c
     cb4:	a6 89       	ldd	r26, Z+22	; 0x16
     cb6:	b7 89       	ldd	r27, Z+23	; 0x17
     cb8:	2c 93       	st	X, r18
     cba:	a0 89       	ldd	r26, Z+16	; 0x10
     cbc:	b1 89       	ldd	r27, Z+17	; 0x11
     cbe:	8c 91       	ld	r24, X
     cc0:	80 64       	ori	r24, 0x40	; 64
     cc2:	8c 93       	st	X, r24
     cc4:	93 8d       	ldd	r25, Z+27	; 0x1b
     cc6:	84 8d       	ldd	r24, Z+28	; 0x1c
     cc8:	98 13       	cpse	r25, r24
     cca:	06 c0       	rjmp	.+12     	; 0xcd8 <_ZN14HardwareSerial17_tx_udr_empty_irqEv+0x40>
     ccc:	02 88       	ldd	r0, Z+18	; 0x12
     cce:	f3 89       	ldd	r31, Z+19	; 0x13
     cd0:	e0 2d       	mov	r30, r0
     cd2:	80 81       	ld	r24, Z
     cd4:	8f 7d       	andi	r24, 0xDF	; 223
     cd6:	80 83       	st	Z, r24
     cd8:	08 95       	ret

00000cda <_ZN14HardwareSerial5writeEh>:
     cda:	ef 92       	push	r14
     cdc:	ff 92       	push	r15
     cde:	0f 93       	push	r16
     ce0:	1f 93       	push	r17
     ce2:	cf 93       	push	r28
     ce4:	df 93       	push	r29
     ce6:	ec 01       	movw	r28, r24
     ce8:	81 e0       	ldi	r24, 0x01	; 1
     cea:	88 8f       	std	Y+24, r24	; 0x18
     cec:	9b 8d       	ldd	r25, Y+27	; 0x1b
     cee:	8c 8d       	ldd	r24, Y+28	; 0x1c
     cf0:	98 13       	cpse	r25, r24
     cf2:	05 c0       	rjmp	.+10     	; 0xcfe <_ZN14HardwareSerial5writeEh+0x24>
     cf4:	e8 89       	ldd	r30, Y+16	; 0x10
     cf6:	f9 89       	ldd	r31, Y+17	; 0x11
     cf8:	80 81       	ld	r24, Z
     cfa:	85 fd       	sbrc	r24, 5
     cfc:	23 c0       	rjmp	.+70     	; 0xd44 <_ZN14HardwareSerial5writeEh+0x6a>
     cfe:	f6 2e       	mov	r15, r22
     d00:	0b 8d       	ldd	r16, Y+27	; 0x1b
     d02:	10 e0       	ldi	r17, 0x00	; 0
     d04:	0f 5f       	subi	r16, 0xFF	; 255
     d06:	1f 4f       	sbci	r17, 0xFF	; 255
     d08:	0f 73       	andi	r16, 0x3F	; 63
     d0a:	11 27       	eor	r17, r17
     d0c:	e0 2e       	mov	r14, r16
     d0e:	8c 8d       	ldd	r24, Y+28	; 0x1c
     d10:	e8 12       	cpse	r14, r24
     d12:	0b c0       	rjmp	.+22     	; 0xd2a <_ZN14HardwareSerial5writeEh+0x50>
     d14:	0f b6       	in	r0, 0x3f	; 63
     d16:	07 fc       	sbrc	r0, 7
     d18:	fa cf       	rjmp	.-12     	; 0xd0e <_ZN14HardwareSerial5writeEh+0x34>
     d1a:	e8 89       	ldd	r30, Y+16	; 0x10
     d1c:	f9 89       	ldd	r31, Y+17	; 0x11
     d1e:	80 81       	ld	r24, Z
     d20:	85 ff       	sbrs	r24, 5
     d22:	f5 cf       	rjmp	.-22     	; 0xd0e <_ZN14HardwareSerial5writeEh+0x34>
     d24:	ce 01       	movw	r24, r28
     d26:	b8 df       	rcall	.-144    	; 0xc98 <_ZN14HardwareSerial17_tx_udr_empty_irqEv>
     d28:	f2 cf       	rjmp	.-28     	; 0xd0e <_ZN14HardwareSerial5writeEh+0x34>
     d2a:	8b 8d       	ldd	r24, Y+27	; 0x1b
     d2c:	fe 01       	movw	r30, r28
     d2e:	e8 0f       	add	r30, r24
     d30:	f1 1d       	adc	r31, r1
     d32:	e3 5a       	subi	r30, 0xA3	; 163
     d34:	ff 4f       	sbci	r31, 0xFF	; 255
     d36:	f0 82       	st	Z, r15
     d38:	0b 8f       	std	Y+27, r16	; 0x1b
     d3a:	ea 89       	ldd	r30, Y+18	; 0x12
     d3c:	fb 89       	ldd	r31, Y+19	; 0x13
     d3e:	80 81       	ld	r24, Z
     d40:	80 62       	ori	r24, 0x20	; 32
     d42:	07 c0       	rjmp	.+14     	; 0xd52 <_ZN14HardwareSerial5writeEh+0x78>
     d44:	ee 89       	ldd	r30, Y+22	; 0x16
     d46:	ff 89       	ldd	r31, Y+23	; 0x17
     d48:	60 83       	st	Z, r22
     d4a:	e8 89       	ldd	r30, Y+16	; 0x10
     d4c:	f9 89       	ldd	r31, Y+17	; 0x11
     d4e:	80 81       	ld	r24, Z
     d50:	80 64       	ori	r24, 0x40	; 64
     d52:	80 83       	st	Z, r24
     d54:	81 e0       	ldi	r24, 0x01	; 1
     d56:	90 e0       	ldi	r25, 0x00	; 0
     d58:	df 91       	pop	r29
     d5a:	cf 91       	pop	r28
     d5c:	1f 91       	pop	r17
     d5e:	0f 91       	pop	r16
     d60:	ff 90       	pop	r15
     d62:	ef 90       	pop	r14
     d64:	08 95       	ret

00000d66 <_ZN14HardwareSerial5flushEv>:
     d66:	cf 93       	push	r28
     d68:	df 93       	push	r29
     d6a:	ec 01       	movw	r28, r24
     d6c:	88 8d       	ldd	r24, Y+24	; 0x18
     d6e:	88 23       	and	r24, r24
     d70:	c1 f0       	breq	.+48     	; 0xda2 <_ZN14HardwareSerial5flushEv+0x3c>
     d72:	ea 89       	ldd	r30, Y+18	; 0x12
     d74:	fb 89       	ldd	r31, Y+19	; 0x13
     d76:	80 81       	ld	r24, Z
     d78:	85 fd       	sbrc	r24, 5
     d7a:	05 c0       	rjmp	.+10     	; 0xd86 <_ZN14HardwareSerial5flushEv+0x20>
     d7c:	a8 89       	ldd	r26, Y+16	; 0x10
     d7e:	b9 89       	ldd	r27, Y+17	; 0x11
     d80:	8c 91       	ld	r24, X
     d82:	86 fd       	sbrc	r24, 6
     d84:	0e c0       	rjmp	.+28     	; 0xda2 <_ZN14HardwareSerial5flushEv+0x3c>
     d86:	0f b6       	in	r0, 0x3f	; 63
     d88:	07 fc       	sbrc	r0, 7
     d8a:	f5 cf       	rjmp	.-22     	; 0xd76 <_ZN14HardwareSerial5flushEv+0x10>
     d8c:	80 81       	ld	r24, Z
     d8e:	85 ff       	sbrs	r24, 5
     d90:	f2 cf       	rjmp	.-28     	; 0xd76 <_ZN14HardwareSerial5flushEv+0x10>
     d92:	a8 89       	ldd	r26, Y+16	; 0x10
     d94:	b9 89       	ldd	r27, Y+17	; 0x11
     d96:	8c 91       	ld	r24, X
     d98:	85 ff       	sbrs	r24, 5
     d9a:	ed cf       	rjmp	.-38     	; 0xd76 <_ZN14HardwareSerial5flushEv+0x10>
     d9c:	ce 01       	movw	r24, r28
     d9e:	7c df       	rcall	.-264    	; 0xc98 <_ZN14HardwareSerial17_tx_udr_empty_irqEv>
     da0:	e8 cf       	rjmp	.-48     	; 0xd72 <_ZN14HardwareSerial5flushEv+0xc>
     da2:	df 91       	pop	r29
     da4:	cf 91       	pop	r28
     da6:	08 95       	ret

00000da8 <_ZN14HardwareSerial5beginEmh>:
     da8:	cf 92       	push	r12
     daa:	df 92       	push	r13
     dac:	ef 92       	push	r14
     dae:	ff 92       	push	r15
     db0:	1f 93       	push	r17
     db2:	cf 93       	push	r28
     db4:	df 93       	push	r29
     db6:	ec 01       	movw	r28, r24
     db8:	6a 01       	movw	r12, r20
     dba:	7b 01       	movw	r14, r22
     dbc:	12 2f       	mov	r17, r18
     dbe:	e8 89       	ldd	r30, Y+16	; 0x10
     dc0:	f9 89       	ldd	r31, Y+17	; 0x11
     dc2:	82 e0       	ldi	r24, 0x02	; 2
     dc4:	80 83       	st	Z, r24
     dc6:	41 15       	cp	r20, r1
     dc8:	51 4e       	sbci	r21, 0xE1	; 225
     dca:	61 05       	cpc	r22, r1
     dcc:	71 05       	cpc	r23, r1
     dce:	b1 f0       	breq	.+44     	; 0xdfc <_ZN14HardwareSerial5beginEmh+0x54>
     dd0:	60 e0       	ldi	r22, 0x00	; 0
     dd2:	79 e0       	ldi	r23, 0x09	; 9
     dd4:	8d e3       	ldi	r24, 0x3D	; 61
     dd6:	90 e0       	ldi	r25, 0x00	; 0
     dd8:	a7 01       	movw	r20, r14
     dda:	96 01       	movw	r18, r12
     ddc:	0e 94 25 11 	call	0x224a	; 0x224a <__udivmodsi4>
     de0:	da 01       	movw	r26, r20
     de2:	c9 01       	movw	r24, r18
     de4:	01 97       	sbiw	r24, 0x01	; 1
     de6:	a1 09       	sbc	r26, r1
     de8:	b1 09       	sbc	r27, r1
     dea:	b6 95       	lsr	r27
     dec:	a7 95       	ror	r26
     dee:	97 95       	ror	r25
     df0:	87 95       	ror	r24
     df2:	9c 01       	movw	r18, r24
     df4:	21 15       	cp	r18, r1
     df6:	80 e1       	ldi	r24, 0x10	; 16
     df8:	38 07       	cpc	r19, r24
     dfa:	a8 f0       	brcs	.+42     	; 0xe26 <_ZN14HardwareSerial5beginEmh+0x7e>
     dfc:	e8 89       	ldd	r30, Y+16	; 0x10
     dfe:	f9 89       	ldd	r31, Y+17	; 0x11
     e00:	10 82       	st	Z, r1
     e02:	60 e8       	ldi	r22, 0x80	; 128
     e04:	74 e8       	ldi	r23, 0x84	; 132
     e06:	8e e1       	ldi	r24, 0x1E	; 30
     e08:	90 e0       	ldi	r25, 0x00	; 0
     e0a:	a7 01       	movw	r20, r14
     e0c:	96 01       	movw	r18, r12
     e0e:	0e 94 25 11 	call	0x224a	; 0x224a <__udivmodsi4>
     e12:	da 01       	movw	r26, r20
     e14:	c9 01       	movw	r24, r18
     e16:	01 97       	sbiw	r24, 0x01	; 1
     e18:	a1 09       	sbc	r26, r1
     e1a:	b1 09       	sbc	r27, r1
     e1c:	b6 95       	lsr	r27
     e1e:	a7 95       	ror	r26
     e20:	97 95       	ror	r25
     e22:	87 95       	ror	r24
     e24:	9c 01       	movw	r18, r24
     e26:	ec 85       	ldd	r30, Y+12	; 0x0c
     e28:	fd 85       	ldd	r31, Y+13	; 0x0d
     e2a:	30 83       	st	Z, r19
     e2c:	ee 85       	ldd	r30, Y+14	; 0x0e
     e2e:	ff 85       	ldd	r31, Y+15	; 0x0f
     e30:	20 83       	st	Z, r18
     e32:	18 8e       	std	Y+24, r1	; 0x18
     e34:	ec 89       	ldd	r30, Y+20	; 0x14
     e36:	fd 89       	ldd	r31, Y+21	; 0x15
     e38:	10 83       	st	Z, r17
     e3a:	ea 89       	ldd	r30, Y+18	; 0x12
     e3c:	fb 89       	ldd	r31, Y+19	; 0x13
     e3e:	80 81       	ld	r24, Z
     e40:	80 61       	ori	r24, 0x10	; 16
     e42:	80 83       	st	Z, r24
     e44:	ea 89       	ldd	r30, Y+18	; 0x12
     e46:	fb 89       	ldd	r31, Y+19	; 0x13
     e48:	80 81       	ld	r24, Z
     e4a:	88 60       	ori	r24, 0x08	; 8
     e4c:	80 83       	st	Z, r24
     e4e:	ea 89       	ldd	r30, Y+18	; 0x12
     e50:	fb 89       	ldd	r31, Y+19	; 0x13
     e52:	80 81       	ld	r24, Z
     e54:	80 68       	ori	r24, 0x80	; 128
     e56:	80 83       	st	Z, r24
     e58:	ea 89       	ldd	r30, Y+18	; 0x12
     e5a:	fb 89       	ldd	r31, Y+19	; 0x13
     e5c:	80 81       	ld	r24, Z
     e5e:	8f 7d       	andi	r24, 0xDF	; 223
     e60:	80 83       	st	Z, r24
     e62:	df 91       	pop	r29
     e64:	cf 91       	pop	r28
     e66:	1f 91       	pop	r17
     e68:	ff 90       	pop	r15
     e6a:	ef 90       	pop	r14
     e6c:	df 90       	pop	r13
     e6e:	cf 90       	pop	r12
     e70:	08 95       	ret

00000e72 <__vector_25>:
     e72:	1f 92       	push	r1
     e74:	0f 92       	push	r0
     e76:	0f b6       	in	r0, 0x3f	; 63
     e78:	0f 92       	push	r0
     e7a:	11 24       	eor	r1, r1
     e7c:	0b b6       	in	r0, 0x3b	; 59
     e7e:	0f 92       	push	r0
     e80:	2f 93       	push	r18
     e82:	8f 93       	push	r24
     e84:	9f 93       	push	r25
     e86:	ef 93       	push	r30
     e88:	ff 93       	push	r31
     e8a:	e0 91 36 05 	lds	r30, 0x0536	; 0x800536 <Serial+0x10>
     e8e:	f0 91 37 05 	lds	r31, 0x0537	; 0x800537 <Serial+0x11>
     e92:	80 81       	ld	r24, Z
     e94:	e0 91 3c 05 	lds	r30, 0x053C	; 0x80053c <Serial+0x16>
     e98:	f0 91 3d 05 	lds	r31, 0x053D	; 0x80053d <Serial+0x17>
     e9c:	82 fd       	sbrc	r24, 2
     e9e:	12 c0       	rjmp	.+36     	; 0xec4 <__vector_25+0x52>
     ea0:	90 81       	ld	r25, Z
     ea2:	80 91 3f 05 	lds	r24, 0x053F	; 0x80053f <Serial+0x19>
     ea6:	8f 5f       	subi	r24, 0xFF	; 255
     ea8:	8f 73       	andi	r24, 0x3F	; 63
     eaa:	20 91 40 05 	lds	r18, 0x0540	; 0x800540 <Serial+0x1a>
     eae:	82 17       	cp	r24, r18
     eb0:	51 f0       	breq	.+20     	; 0xec6 <__vector_25+0x54>
     eb2:	e0 91 3f 05 	lds	r30, 0x053F	; 0x80053f <Serial+0x19>
     eb6:	f0 e0       	ldi	r31, 0x00	; 0
     eb8:	ea 5d       	subi	r30, 0xDA	; 218
     eba:	fa 4f       	sbci	r31, 0xFA	; 250
     ebc:	95 8f       	std	Z+29, r25	; 0x1d
     ebe:	80 93 3f 05 	sts	0x053F, r24	; 0x80053f <Serial+0x19>
     ec2:	01 c0       	rjmp	.+2      	; 0xec6 <__vector_25+0x54>
     ec4:	80 81       	ld	r24, Z
     ec6:	ff 91       	pop	r31
     ec8:	ef 91       	pop	r30
     eca:	9f 91       	pop	r25
     ecc:	8f 91       	pop	r24
     ece:	2f 91       	pop	r18
     ed0:	0f 90       	pop	r0
     ed2:	0b be       	out	0x3b, r0	; 59
     ed4:	0f 90       	pop	r0
     ed6:	0f be       	out	0x3f, r0	; 63
     ed8:	0f 90       	pop	r0
     eda:	1f 90       	pop	r1
     edc:	18 95       	reti

00000ede <__vector_26>:
     ede:	1f 92       	push	r1
     ee0:	0f 92       	push	r0
     ee2:	0f b6       	in	r0, 0x3f	; 63
     ee4:	0f 92       	push	r0
     ee6:	11 24       	eor	r1, r1
     ee8:	0b b6       	in	r0, 0x3b	; 59
     eea:	0f 92       	push	r0
     eec:	2f 93       	push	r18
     eee:	3f 93       	push	r19
     ef0:	4f 93       	push	r20
     ef2:	5f 93       	push	r21
     ef4:	6f 93       	push	r22
     ef6:	7f 93       	push	r23
     ef8:	8f 93       	push	r24
     efa:	9f 93       	push	r25
     efc:	af 93       	push	r26
     efe:	bf 93       	push	r27
     f00:	ef 93       	push	r30
     f02:	ff 93       	push	r31
     f04:	86 e2       	ldi	r24, 0x26	; 38
     f06:	95 e0       	ldi	r25, 0x05	; 5
     f08:	c7 de       	rcall	.-626    	; 0xc98 <_ZN14HardwareSerial17_tx_udr_empty_irqEv>
     f0a:	ff 91       	pop	r31
     f0c:	ef 91       	pop	r30
     f0e:	bf 91       	pop	r27
     f10:	af 91       	pop	r26
     f12:	9f 91       	pop	r25
     f14:	8f 91       	pop	r24
     f16:	7f 91       	pop	r23
     f18:	6f 91       	pop	r22
     f1a:	5f 91       	pop	r21
     f1c:	4f 91       	pop	r20
     f1e:	3f 91       	pop	r19
     f20:	2f 91       	pop	r18
     f22:	0f 90       	pop	r0
     f24:	0b be       	out	0x3b, r0	; 59
     f26:	0f 90       	pop	r0
     f28:	0f be       	out	0x3f, r0	; 63
     f2a:	0f 90       	pop	r0
     f2c:	1f 90       	pop	r1
     f2e:	18 95       	reti

00000f30 <_Z17Serial0_availablev>:
     f30:	86 e2       	ldi	r24, 0x26	; 38
     f32:	95 e0       	ldi	r25, 0x05	; 5
     f34:	38 de       	rcall	.-912    	; 0xba6 <_ZN14HardwareSerial9availableEv>
     f36:	21 e0       	ldi	r18, 0x01	; 1
     f38:	89 2b       	or	r24, r25
     f3a:	09 f4       	brne	.+2      	; 0xf3e <_Z17Serial0_availablev+0xe>
     f3c:	20 e0       	ldi	r18, 0x00	; 0
     f3e:	82 2f       	mov	r24, r18
     f40:	08 95       	ret

00000f42 <_GLOBAL__sub_I___vector_25>:
     f42:	e6 e2       	ldi	r30, 0x26	; 38
     f44:	f5 e0       	ldi	r31, 0x05	; 5
     f46:	13 82       	std	Z+3, r1	; 0x03
     f48:	12 82       	std	Z+2, r1	; 0x02
     f4a:	88 ee       	ldi	r24, 0xE8	; 232
     f4c:	93 e0       	ldi	r25, 0x03	; 3
     f4e:	a0 e0       	ldi	r26, 0x00	; 0
     f50:	b0 e0       	ldi	r27, 0x00	; 0
     f52:	84 83       	std	Z+4, r24	; 0x04
     f54:	95 83       	std	Z+5, r25	; 0x05
     f56:	a6 83       	std	Z+6, r26	; 0x06
     f58:	b7 83       	std	Z+7, r27	; 0x07
     f5a:	85 e4       	ldi	r24, 0x45	; 69
     f5c:	92 e0       	ldi	r25, 0x02	; 2
     f5e:	91 83       	std	Z+1, r25	; 0x01
     f60:	80 83       	st	Z, r24
     f62:	85 ec       	ldi	r24, 0xC5	; 197
     f64:	90 e0       	ldi	r25, 0x00	; 0
     f66:	95 87       	std	Z+13, r25	; 0x0d
     f68:	84 87       	std	Z+12, r24	; 0x0c
     f6a:	84 ec       	ldi	r24, 0xC4	; 196
     f6c:	90 e0       	ldi	r25, 0x00	; 0
     f6e:	97 87       	std	Z+15, r25	; 0x0f
     f70:	86 87       	std	Z+14, r24	; 0x0e
     f72:	80 ec       	ldi	r24, 0xC0	; 192
     f74:	90 e0       	ldi	r25, 0x00	; 0
     f76:	91 8b       	std	Z+17, r25	; 0x11
     f78:	80 8b       	std	Z+16, r24	; 0x10
     f7a:	81 ec       	ldi	r24, 0xC1	; 193
     f7c:	90 e0       	ldi	r25, 0x00	; 0
     f7e:	93 8b       	std	Z+19, r25	; 0x13
     f80:	82 8b       	std	Z+18, r24	; 0x12
     f82:	82 ec       	ldi	r24, 0xC2	; 194
     f84:	90 e0       	ldi	r25, 0x00	; 0
     f86:	95 8b       	std	Z+21, r25	; 0x15
     f88:	84 8b       	std	Z+20, r24	; 0x14
     f8a:	86 ec       	ldi	r24, 0xC6	; 198
     f8c:	90 e0       	ldi	r25, 0x00	; 0
     f8e:	97 8b       	std	Z+23, r25	; 0x17
     f90:	86 8b       	std	Z+22, r24	; 0x16
     f92:	11 8e       	std	Z+25, r1	; 0x19
     f94:	12 8e       	std	Z+26, r1	; 0x1a
     f96:	13 8e       	std	Z+27, r1	; 0x1b
     f98:	14 8e       	std	Z+28, r1	; 0x1c
     f9a:	08 95       	ret

00000f9c <initVariant>:
     f9c:	08 95       	ret

00000f9e <main>:
     f9e:	7b d1       	rcall	.+758    	; 0x1296 <init>
     fa0:	fd df       	rcall	.-6      	; 0xf9c <initVariant>
     fa2:	38 dc       	rcall	.-1936   	; 0x814 <setup>
     fa4:	c0 e1       	ldi	r28, 0x10	; 16
     fa6:	d6 e0       	ldi	r29, 0x06	; 6
     fa8:	7e dc       	rcall	.-1796   	; 0x8a6 <loop>
     faa:	20 97       	sbiw	r28, 0x00	; 0
     fac:	e9 f3       	breq	.-6      	; 0xfa8 <main+0xa>
     fae:	38 de       	rcall	.-912    	; 0xc20 <_Z14serialEventRunv>
     fb0:	fb cf       	rjmp	.-10     	; 0xfa8 <main+0xa>

00000fb2 <_ZN5Print5writeEPKhj>:
     fb2:	cf 92       	push	r12
     fb4:	df 92       	push	r13
     fb6:	ef 92       	push	r14
     fb8:	ff 92       	push	r15
     fba:	0f 93       	push	r16
     fbc:	1f 93       	push	r17
     fbe:	cf 93       	push	r28
     fc0:	df 93       	push	r29
     fc2:	6c 01       	movw	r12, r24
     fc4:	7a 01       	movw	r14, r20
     fc6:	8b 01       	movw	r16, r22
     fc8:	c0 e0       	ldi	r28, 0x00	; 0
     fca:	d0 e0       	ldi	r29, 0x00	; 0
     fcc:	ce 15       	cp	r28, r14
     fce:	df 05       	cpc	r29, r15
     fd0:	81 f0       	breq	.+32     	; 0xff2 <_ZN5Print5writeEPKhj+0x40>
     fd2:	d8 01       	movw	r26, r16
     fd4:	6d 91       	ld	r22, X+
     fd6:	8d 01       	movw	r16, r26
     fd8:	d6 01       	movw	r26, r12
     fda:	ed 91       	ld	r30, X+
     fdc:	fc 91       	ld	r31, X
     fde:	01 90       	ld	r0, Z+
     fe0:	f0 81       	ld	r31, Z
     fe2:	e0 2d       	mov	r30, r0
     fe4:	c6 01       	movw	r24, r12
     fe6:	19 95       	eicall
     fe8:	89 2b       	or	r24, r25
     fea:	11 f0       	breq	.+4      	; 0xff0 <_ZN5Print5writeEPKhj+0x3e>
     fec:	21 96       	adiw	r28, 0x01	; 1
     fee:	ee cf       	rjmp	.-36     	; 0xfcc <_ZN5Print5writeEPKhj+0x1a>
     ff0:	7e 01       	movw	r14, r28
     ff2:	c7 01       	movw	r24, r14
     ff4:	df 91       	pop	r29
     ff6:	cf 91       	pop	r28
     ff8:	1f 91       	pop	r17
     ffa:	0f 91       	pop	r16
     ffc:	ff 90       	pop	r15
     ffe:	ef 90       	pop	r14
    1000:	df 90       	pop	r13
    1002:	cf 90       	pop	r12
    1004:	08 95       	ret

00001006 <_ZN5Print5writeEPKc>:
    1006:	61 15       	cp	r22, r1
    1008:	71 05       	cpc	r23, r1
    100a:	79 f0       	breq	.+30     	; 0x102a <_ZN5Print5writeEPKc+0x24>
    100c:	fb 01       	movw	r30, r22
    100e:	01 90       	ld	r0, Z+
    1010:	00 20       	and	r0, r0
    1012:	e9 f7       	brne	.-6      	; 0x100e <_ZN5Print5writeEPKc+0x8>
    1014:	31 97       	sbiw	r30, 0x01	; 1
    1016:	af 01       	movw	r20, r30
    1018:	46 1b       	sub	r20, r22
    101a:	57 0b       	sbc	r21, r23
    101c:	dc 01       	movw	r26, r24
    101e:	ed 91       	ld	r30, X+
    1020:	fc 91       	ld	r31, X
    1022:	02 80       	ldd	r0, Z+2	; 0x02
    1024:	f3 81       	ldd	r31, Z+3	; 0x03
    1026:	e0 2d       	mov	r30, r0
    1028:	19 94       	eijmp
    102a:	80 e0       	ldi	r24, 0x00	; 0
    102c:	90 e0       	ldi	r25, 0x00	; 0
    102e:	08 95       	ret

00001030 <_ZN5Print5printEc>:
    1030:	dc 01       	movw	r26, r24
    1032:	ed 91       	ld	r30, X+
    1034:	fc 91       	ld	r31, X
    1036:	01 90       	ld	r0, Z+
    1038:	f0 81       	ld	r31, Z
    103a:	e0 2d       	mov	r30, r0
    103c:	19 94       	eijmp

0000103e <_ZN5Print7printlnEv>:
    103e:	63 e5       	ldi	r22, 0x53	; 83
    1040:	72 e0       	ldi	r23, 0x02	; 2
    1042:	e1 cf       	rjmp	.-62     	; 0x1006 <_ZN5Print5writeEPKc>

00001044 <_ZN5Print7printlnEPKc>:
    1044:	0f 93       	push	r16
    1046:	1f 93       	push	r17
    1048:	cf 93       	push	r28
    104a:	df 93       	push	r29
    104c:	ec 01       	movw	r28, r24
    104e:	db df       	rcall	.-74     	; 0x1006 <_ZN5Print5writeEPKc>
    1050:	8c 01       	movw	r16, r24
    1052:	ce 01       	movw	r24, r28
    1054:	f4 df       	rcall	.-24     	; 0x103e <_ZN5Print7printlnEv>
    1056:	80 0f       	add	r24, r16
    1058:	91 1f       	adc	r25, r17
    105a:	df 91       	pop	r29
    105c:	cf 91       	pop	r28
    105e:	1f 91       	pop	r17
    1060:	0f 91       	pop	r16
    1062:	08 95       	ret

00001064 <_ZN5Print11printNumberEmh>:
    1064:	8f 92       	push	r8
    1066:	9f 92       	push	r9
    1068:	af 92       	push	r10
    106a:	bf 92       	push	r11
    106c:	ef 92       	push	r14
    106e:	ff 92       	push	r15
    1070:	0f 93       	push	r16
    1072:	1f 93       	push	r17
    1074:	cf 93       	push	r28
    1076:	df 93       	push	r29
    1078:	cd b7       	in	r28, 0x3d	; 61
    107a:	de b7       	in	r29, 0x3e	; 62
    107c:	a1 97       	sbiw	r28, 0x21	; 33
    107e:	0f b6       	in	r0, 0x3f	; 63
    1080:	f8 94       	cli
    1082:	de bf       	out	0x3e, r29	; 62
    1084:	0f be       	out	0x3f, r0	; 63
    1086:	cd bf       	out	0x3d, r28	; 61
    1088:	7c 01       	movw	r14, r24
    108a:	fa 01       	movw	r30, r20
    108c:	cb 01       	movw	r24, r22
    108e:	19 a2       	std	Y+33, r1	; 0x21
    1090:	22 30       	cpi	r18, 0x02	; 2
    1092:	08 f4       	brcc	.+2      	; 0x1096 <_ZN5Print11printNumberEmh+0x32>
    1094:	2a e0       	ldi	r18, 0x0A	; 10
    1096:	8e 01       	movw	r16, r28
    1098:	0f 5d       	subi	r16, 0xDF	; 223
    109a:	1f 4f       	sbci	r17, 0xFF	; 255
    109c:	82 2e       	mov	r8, r18
    109e:	91 2c       	mov	r9, r1
    10a0:	a1 2c       	mov	r10, r1
    10a2:	b1 2c       	mov	r11, r1
    10a4:	bf 01       	movw	r22, r30
    10a6:	a5 01       	movw	r20, r10
    10a8:	94 01       	movw	r18, r8
    10aa:	0e 94 25 11 	call	0x224a	; 0x224a <__udivmodsi4>
    10ae:	f9 01       	movw	r30, r18
    10b0:	ca 01       	movw	r24, r20
    10b2:	01 50       	subi	r16, 0x01	; 1
    10b4:	11 09       	sbc	r17, r1
    10b6:	6a 30       	cpi	r22, 0x0A	; 10
    10b8:	10 f4       	brcc	.+4      	; 0x10be <_ZN5Print11printNumberEmh+0x5a>
    10ba:	60 5d       	subi	r22, 0xD0	; 208
    10bc:	01 c0       	rjmp	.+2      	; 0x10c0 <_ZN5Print11printNumberEmh+0x5c>
    10be:	69 5c       	subi	r22, 0xC9	; 201
    10c0:	d8 01       	movw	r26, r16
    10c2:	6c 93       	st	X, r22
    10c4:	23 2b       	or	r18, r19
    10c6:	24 2b       	or	r18, r20
    10c8:	25 2b       	or	r18, r21
    10ca:	61 f7       	brne	.-40     	; 0x10a4 <_ZN5Print11printNumberEmh+0x40>
    10cc:	b8 01       	movw	r22, r16
    10ce:	c7 01       	movw	r24, r14
    10d0:	9a df       	rcall	.-204    	; 0x1006 <_ZN5Print5writeEPKc>
    10d2:	a1 96       	adiw	r28, 0x21	; 33
    10d4:	0f b6       	in	r0, 0x3f	; 63
    10d6:	f8 94       	cli
    10d8:	de bf       	out	0x3e, r29	; 62
    10da:	0f be       	out	0x3f, r0	; 63
    10dc:	cd bf       	out	0x3d, r28	; 61
    10de:	df 91       	pop	r29
    10e0:	cf 91       	pop	r28
    10e2:	1f 91       	pop	r17
    10e4:	0f 91       	pop	r16
    10e6:	ff 90       	pop	r15
    10e8:	ef 90       	pop	r14
    10ea:	bf 90       	pop	r11
    10ec:	af 90       	pop	r10
    10ee:	9f 90       	pop	r9
    10f0:	8f 90       	pop	r8
    10f2:	08 95       	ret

000010f4 <_ZN5Print5printEmi>:
    10f4:	21 15       	cp	r18, r1
    10f6:	31 05       	cpc	r19, r1
    10f8:	41 f4       	brne	.+16     	; 0x110a <_ZN5Print5printEmi+0x16>
    10fa:	dc 01       	movw	r26, r24
    10fc:	ed 91       	ld	r30, X+
    10fe:	fc 91       	ld	r31, X
    1100:	01 90       	ld	r0, Z+
    1102:	f0 81       	ld	r31, Z
    1104:	e0 2d       	mov	r30, r0
    1106:	64 2f       	mov	r22, r20
    1108:	19 94       	eijmp
    110a:	ac cf       	rjmp	.-168    	; 0x1064 <_ZN5Print11printNumberEmh>

0000110c <_ZN5Print5printEji>:
    110c:	9a 01       	movw	r18, r20
    110e:	ab 01       	movw	r20, r22
    1110:	60 e0       	ldi	r22, 0x00	; 0
    1112:	70 e0       	ldi	r23, 0x00	; 0
    1114:	ef cf       	rjmp	.-34     	; 0x10f4 <_ZN5Print5printEmi>

00001116 <_ZN5Print7printlnEji>:
    1116:	0f 93       	push	r16
    1118:	1f 93       	push	r17
    111a:	cf 93       	push	r28
    111c:	df 93       	push	r29
    111e:	ec 01       	movw	r28, r24
    1120:	f5 df       	rcall	.-22     	; 0x110c <_ZN5Print5printEji>
    1122:	8c 01       	movw	r16, r24
    1124:	ce 01       	movw	r24, r28
    1126:	8b df       	rcall	.-234    	; 0x103e <_ZN5Print7printlnEv>
    1128:	80 0f       	add	r24, r16
    112a:	91 1f       	adc	r25, r17
    112c:	df 91       	pop	r29
    112e:	cf 91       	pop	r28
    1130:	1f 91       	pop	r17
    1132:	0f 91       	pop	r16
    1134:	08 95       	ret

00001136 <_ZN5Print5printEli>:
    1136:	cf 92       	push	r12
    1138:	df 92       	push	r13
    113a:	ef 92       	push	r14
    113c:	ff 92       	push	r15
    113e:	0f 93       	push	r16
    1140:	1f 93       	push	r17
    1142:	cf 93       	push	r28
    1144:	df 93       	push	r29
    1146:	21 15       	cp	r18, r1
    1148:	31 05       	cpc	r19, r1
    114a:	81 f4       	brne	.+32     	; 0x116c <_ZN5Print5printEli+0x36>
    114c:	dc 01       	movw	r26, r24
    114e:	ed 91       	ld	r30, X+
    1150:	fc 91       	ld	r31, X
    1152:	01 90       	ld	r0, Z+
    1154:	f0 81       	ld	r31, Z
    1156:	e0 2d       	mov	r30, r0
    1158:	64 2f       	mov	r22, r20
    115a:	df 91       	pop	r29
    115c:	cf 91       	pop	r28
    115e:	1f 91       	pop	r17
    1160:	0f 91       	pop	r16
    1162:	ff 90       	pop	r15
    1164:	ef 90       	pop	r14
    1166:	df 90       	pop	r13
    1168:	cf 90       	pop	r12
    116a:	19 94       	eijmp
    116c:	2a 30       	cpi	r18, 0x0A	; 10
    116e:	31 05       	cpc	r19, r1
    1170:	f1 f4       	brne	.+60     	; 0x11ae <_ZN5Print5printEli+0x78>
    1172:	77 ff       	sbrs	r23, 7
    1174:	1b c0       	rjmp	.+54     	; 0x11ac <_ZN5Print5printEli+0x76>
    1176:	6a 01       	movw	r12, r20
    1178:	7b 01       	movw	r14, r22
    117a:	ec 01       	movw	r28, r24
    117c:	6d e2       	ldi	r22, 0x2D	; 45
    117e:	58 df       	rcall	.-336    	; 0x1030 <_ZN5Print5printEc>
    1180:	8c 01       	movw	r16, r24
    1182:	44 27       	eor	r20, r20
    1184:	55 27       	eor	r21, r21
    1186:	ba 01       	movw	r22, r20
    1188:	4c 19       	sub	r20, r12
    118a:	5d 09       	sbc	r21, r13
    118c:	6e 09       	sbc	r22, r14
    118e:	7f 09       	sbc	r23, r15
    1190:	2a e0       	ldi	r18, 0x0A	; 10
    1192:	ce 01       	movw	r24, r28
    1194:	67 df       	rcall	.-306    	; 0x1064 <_ZN5Print11printNumberEmh>
    1196:	80 0f       	add	r24, r16
    1198:	91 1f       	adc	r25, r17
    119a:	df 91       	pop	r29
    119c:	cf 91       	pop	r28
    119e:	1f 91       	pop	r17
    11a0:	0f 91       	pop	r16
    11a2:	ff 90       	pop	r15
    11a4:	ef 90       	pop	r14
    11a6:	df 90       	pop	r13
    11a8:	cf 90       	pop	r12
    11aa:	08 95       	ret
    11ac:	2a e0       	ldi	r18, 0x0A	; 10
    11ae:	df 91       	pop	r29
    11b0:	cf 91       	pop	r28
    11b2:	1f 91       	pop	r17
    11b4:	0f 91       	pop	r16
    11b6:	ff 90       	pop	r15
    11b8:	ef 90       	pop	r14
    11ba:	df 90       	pop	r13
    11bc:	cf 90       	pop	r12
    11be:	52 cf       	rjmp	.-348    	; 0x1064 <_ZN5Print11printNumberEmh>

000011c0 <_ZN5Print5printEii>:
    11c0:	9a 01       	movw	r18, r20
    11c2:	ab 01       	movw	r20, r22
    11c4:	77 0f       	add	r23, r23
    11c6:	66 0b       	sbc	r22, r22
    11c8:	77 0b       	sbc	r23, r23
    11ca:	b5 cf       	rjmp	.-150    	; 0x1136 <_ZN5Print5printEli>

000011cc <_ZN5Print7printlnEii>:
    11cc:	0f 93       	push	r16
    11ce:	1f 93       	push	r17
    11d0:	cf 93       	push	r28
    11d2:	df 93       	push	r29
    11d4:	ec 01       	movw	r28, r24
    11d6:	f4 df       	rcall	.-24     	; 0x11c0 <_ZN5Print5printEii>
    11d8:	8c 01       	movw	r16, r24
    11da:	ce 01       	movw	r24, r28
    11dc:	30 df       	rcall	.-416    	; 0x103e <_ZN5Print7printlnEv>
    11de:	80 0f       	add	r24, r16
    11e0:	91 1f       	adc	r25, r17
    11e2:	df 91       	pop	r29
    11e4:	cf 91       	pop	r28
    11e6:	1f 91       	pop	r17
    11e8:	0f 91       	pop	r16
    11ea:	08 95       	ret

000011ec <__vector_23>:
    11ec:	1f 92       	push	r1
    11ee:	0f 92       	push	r0
    11f0:	0f b6       	in	r0, 0x3f	; 63
    11f2:	0f 92       	push	r0
    11f4:	11 24       	eor	r1, r1
    11f6:	2f 93       	push	r18
    11f8:	3f 93       	push	r19
    11fa:	8f 93       	push	r24
    11fc:	9f 93       	push	r25
    11fe:	af 93       	push	r26
    1200:	bf 93       	push	r27
    1202:	80 91 c4 05 	lds	r24, 0x05C4	; 0x8005c4 <timer0_millis>
    1206:	90 91 c5 05 	lds	r25, 0x05C5	; 0x8005c5 <timer0_millis+0x1>
    120a:	a0 91 c6 05 	lds	r26, 0x05C6	; 0x8005c6 <timer0_millis+0x2>
    120e:	b0 91 c7 05 	lds	r27, 0x05C7	; 0x8005c7 <timer0_millis+0x3>
    1212:	30 91 c3 05 	lds	r19, 0x05C3	; 0x8005c3 <timer0_fract>
    1216:	23 e0       	ldi	r18, 0x03	; 3
    1218:	23 0f       	add	r18, r19
    121a:	2d 37       	cpi	r18, 0x7D	; 125
    121c:	20 f4       	brcc	.+8      	; 0x1226 <__vector_23+0x3a>
    121e:	01 96       	adiw	r24, 0x01	; 1
    1220:	a1 1d       	adc	r26, r1
    1222:	b1 1d       	adc	r27, r1
    1224:	05 c0       	rjmp	.+10     	; 0x1230 <__vector_23+0x44>
    1226:	26 e8       	ldi	r18, 0x86	; 134
    1228:	23 0f       	add	r18, r19
    122a:	02 96       	adiw	r24, 0x02	; 2
    122c:	a1 1d       	adc	r26, r1
    122e:	b1 1d       	adc	r27, r1
    1230:	20 93 c3 05 	sts	0x05C3, r18	; 0x8005c3 <timer0_fract>
    1234:	80 93 c4 05 	sts	0x05C4, r24	; 0x8005c4 <timer0_millis>
    1238:	90 93 c5 05 	sts	0x05C5, r25	; 0x8005c5 <timer0_millis+0x1>
    123c:	a0 93 c6 05 	sts	0x05C6, r26	; 0x8005c6 <timer0_millis+0x2>
    1240:	b0 93 c7 05 	sts	0x05C7, r27	; 0x8005c7 <timer0_millis+0x3>
    1244:	80 91 c8 05 	lds	r24, 0x05C8	; 0x8005c8 <timer0_overflow_count>
    1248:	90 91 c9 05 	lds	r25, 0x05C9	; 0x8005c9 <timer0_overflow_count+0x1>
    124c:	a0 91 ca 05 	lds	r26, 0x05CA	; 0x8005ca <timer0_overflow_count+0x2>
    1250:	b0 91 cb 05 	lds	r27, 0x05CB	; 0x8005cb <timer0_overflow_count+0x3>
    1254:	01 96       	adiw	r24, 0x01	; 1
    1256:	a1 1d       	adc	r26, r1
    1258:	b1 1d       	adc	r27, r1
    125a:	80 93 c8 05 	sts	0x05C8, r24	; 0x8005c8 <timer0_overflow_count>
    125e:	90 93 c9 05 	sts	0x05C9, r25	; 0x8005c9 <timer0_overflow_count+0x1>
    1262:	a0 93 ca 05 	sts	0x05CA, r26	; 0x8005ca <timer0_overflow_count+0x2>
    1266:	b0 93 cb 05 	sts	0x05CB, r27	; 0x8005cb <timer0_overflow_count+0x3>
    126a:	bf 91       	pop	r27
    126c:	af 91       	pop	r26
    126e:	9f 91       	pop	r25
    1270:	8f 91       	pop	r24
    1272:	3f 91       	pop	r19
    1274:	2f 91       	pop	r18
    1276:	0f 90       	pop	r0
    1278:	0f be       	out	0x3f, r0	; 63
    127a:	0f 90       	pop	r0
    127c:	1f 90       	pop	r1
    127e:	18 95       	reti

00001280 <delayMicroseconds>:
    1280:	82 30       	cpi	r24, 0x02	; 2
    1282:	91 05       	cpc	r25, r1
    1284:	38 f0       	brcs	.+14     	; 0x1294 <delayMicroseconds+0x14>
    1286:	88 0f       	add	r24, r24
    1288:	99 1f       	adc	r25, r25
    128a:	88 0f       	add	r24, r24
    128c:	99 1f       	adc	r25, r25
    128e:	05 97       	sbiw	r24, 0x05	; 5
    1290:	01 97       	sbiw	r24, 0x01	; 1
    1292:	f1 f7       	brne	.-4      	; 0x1290 <delayMicroseconds+0x10>
    1294:	08 95       	ret

00001296 <init>:
    1296:	78 94       	sei
    1298:	84 b5       	in	r24, 0x24	; 36
    129a:	82 60       	ori	r24, 0x02	; 2
    129c:	84 bd       	out	0x24, r24	; 36
    129e:	84 b5       	in	r24, 0x24	; 36
    12a0:	81 60       	ori	r24, 0x01	; 1
    12a2:	84 bd       	out	0x24, r24	; 36
    12a4:	85 b5       	in	r24, 0x25	; 37
    12a6:	82 60       	ori	r24, 0x02	; 2
    12a8:	85 bd       	out	0x25, r24	; 37
    12aa:	85 b5       	in	r24, 0x25	; 37
    12ac:	81 60       	ori	r24, 0x01	; 1
    12ae:	85 bd       	out	0x25, r24	; 37
    12b0:	ee e6       	ldi	r30, 0x6E	; 110
    12b2:	f0 e0       	ldi	r31, 0x00	; 0
    12b4:	80 81       	ld	r24, Z
    12b6:	81 60       	ori	r24, 0x01	; 1
    12b8:	80 83       	st	Z, r24
    12ba:	e1 e8       	ldi	r30, 0x81	; 129
    12bc:	f0 e0       	ldi	r31, 0x00	; 0
    12be:	10 82       	st	Z, r1
    12c0:	80 81       	ld	r24, Z
    12c2:	82 60       	ori	r24, 0x02	; 2
    12c4:	80 83       	st	Z, r24
    12c6:	80 81       	ld	r24, Z
    12c8:	81 60       	ori	r24, 0x01	; 1
    12ca:	80 83       	st	Z, r24
    12cc:	e0 e8       	ldi	r30, 0x80	; 128
    12ce:	f0 e0       	ldi	r31, 0x00	; 0
    12d0:	80 81       	ld	r24, Z
    12d2:	81 60       	ori	r24, 0x01	; 1
    12d4:	80 83       	st	Z, r24
    12d6:	e1 eb       	ldi	r30, 0xB1	; 177
    12d8:	f0 e0       	ldi	r31, 0x00	; 0
    12da:	80 81       	ld	r24, Z
    12dc:	84 60       	ori	r24, 0x04	; 4
    12de:	80 83       	st	Z, r24
    12e0:	e0 eb       	ldi	r30, 0xB0	; 176
    12e2:	f0 e0       	ldi	r31, 0x00	; 0
    12e4:	80 81       	ld	r24, Z
    12e6:	81 60       	ori	r24, 0x01	; 1
    12e8:	80 83       	st	Z, r24
    12ea:	e1 e9       	ldi	r30, 0x91	; 145
    12ec:	f0 e0       	ldi	r31, 0x00	; 0
    12ee:	80 81       	ld	r24, Z
    12f0:	82 60       	ori	r24, 0x02	; 2
    12f2:	80 83       	st	Z, r24
    12f4:	80 81       	ld	r24, Z
    12f6:	81 60       	ori	r24, 0x01	; 1
    12f8:	80 83       	st	Z, r24
    12fa:	e0 e9       	ldi	r30, 0x90	; 144
    12fc:	f0 e0       	ldi	r31, 0x00	; 0
    12fe:	80 81       	ld	r24, Z
    1300:	81 60       	ori	r24, 0x01	; 1
    1302:	80 83       	st	Z, r24
    1304:	e1 ea       	ldi	r30, 0xA1	; 161
    1306:	f0 e0       	ldi	r31, 0x00	; 0
    1308:	80 81       	ld	r24, Z
    130a:	82 60       	ori	r24, 0x02	; 2
    130c:	80 83       	st	Z, r24
    130e:	80 81       	ld	r24, Z
    1310:	81 60       	ori	r24, 0x01	; 1
    1312:	80 83       	st	Z, r24
    1314:	e0 ea       	ldi	r30, 0xA0	; 160
    1316:	f0 e0       	ldi	r31, 0x00	; 0
    1318:	80 81       	ld	r24, Z
    131a:	81 60       	ori	r24, 0x01	; 1
    131c:	80 83       	st	Z, r24
    131e:	e1 e2       	ldi	r30, 0x21	; 33
    1320:	f1 e0       	ldi	r31, 0x01	; 1
    1322:	80 81       	ld	r24, Z
    1324:	82 60       	ori	r24, 0x02	; 2
    1326:	80 83       	st	Z, r24
    1328:	80 81       	ld	r24, Z
    132a:	81 60       	ori	r24, 0x01	; 1
    132c:	80 83       	st	Z, r24
    132e:	e0 e2       	ldi	r30, 0x20	; 32
    1330:	f1 e0       	ldi	r31, 0x01	; 1
    1332:	80 81       	ld	r24, Z
    1334:	81 60       	ori	r24, 0x01	; 1
    1336:	80 83       	st	Z, r24
    1338:	ea e7       	ldi	r30, 0x7A	; 122
    133a:	f0 e0       	ldi	r31, 0x00	; 0
    133c:	80 81       	ld	r24, Z
    133e:	84 60       	ori	r24, 0x04	; 4
    1340:	80 83       	st	Z, r24
    1342:	80 81       	ld	r24, Z
    1344:	82 60       	ori	r24, 0x02	; 2
    1346:	80 83       	st	Z, r24
    1348:	80 81       	ld	r24, Z
    134a:	81 60       	ori	r24, 0x01	; 1
    134c:	80 83       	st	Z, r24
    134e:	80 81       	ld	r24, Z
    1350:	80 68       	ori	r24, 0x80	; 128
    1352:	80 83       	st	Z, r24
    1354:	10 92 c1 00 	sts	0x00C1, r1	; 0x8000c1 <__TEXT_REGION_LENGTH__+0x7000c1>
    1358:	08 95       	ret

0000135a <turnOffPWM>:
    135a:	90 e0       	ldi	r25, 0x00	; 0
    135c:	fc 01       	movw	r30, r24
    135e:	31 97       	sbiw	r30, 0x01	; 1
    1360:	e2 31       	cpi	r30, 0x12	; 18
    1362:	f1 05       	cpc	r31, r1
    1364:	08 f0       	brcs	.+2      	; 0x1368 <turnOffPWM+0xe>
    1366:	4d c0       	rjmp	.+154    	; 0x1402 <turnOffPWM+0xa8>
    1368:	88 27       	eor	r24, r24
    136a:	ee 58       	subi	r30, 0x8E	; 142
    136c:	ff 4f       	sbci	r31, 0xFF	; 255
    136e:	8f 4f       	sbci	r24, 0xFF	; 255
    1370:	8e c7       	rjmp	.+3868   	; 0x228e <__tablejump2__>
    1372:	80 91 80 00 	lds	r24, 0x0080	; 0x800080 <__TEXT_REGION_LENGTH__+0x700080>
    1376:	8f 77       	andi	r24, 0x7F	; 127
    1378:	03 c0       	rjmp	.+6      	; 0x1380 <turnOffPWM+0x26>
    137a:	80 91 80 00 	lds	r24, 0x0080	; 0x800080 <__TEXT_REGION_LENGTH__+0x700080>
    137e:	8f 7d       	andi	r24, 0xDF	; 223
    1380:	80 93 80 00 	sts	0x0080, r24	; 0x800080 <__TEXT_REGION_LENGTH__+0x700080>
    1384:	08 95       	ret
    1386:	80 91 80 00 	lds	r24, 0x0080	; 0x800080 <__TEXT_REGION_LENGTH__+0x700080>
    138a:	87 7f       	andi	r24, 0xF7	; 247
    138c:	f9 cf       	rjmp	.-14     	; 0x1380 <turnOffPWM+0x26>
    138e:	84 b5       	in	r24, 0x24	; 36
    1390:	8f 77       	andi	r24, 0x7F	; 127
    1392:	02 c0       	rjmp	.+4      	; 0x1398 <turnOffPWM+0x3e>
    1394:	84 b5       	in	r24, 0x24	; 36
    1396:	8f 7d       	andi	r24, 0xDF	; 223
    1398:	84 bd       	out	0x24, r24	; 36
    139a:	08 95       	ret
    139c:	80 91 b0 00 	lds	r24, 0x00B0	; 0x8000b0 <__TEXT_REGION_LENGTH__+0x7000b0>
    13a0:	8f 77       	andi	r24, 0x7F	; 127
    13a2:	03 c0       	rjmp	.+6      	; 0x13aa <turnOffPWM+0x50>
    13a4:	80 91 b0 00 	lds	r24, 0x00B0	; 0x8000b0 <__TEXT_REGION_LENGTH__+0x7000b0>
    13a8:	8f 7d       	andi	r24, 0xDF	; 223
    13aa:	80 93 b0 00 	sts	0x00B0, r24	; 0x8000b0 <__TEXT_REGION_LENGTH__+0x7000b0>
    13ae:	08 95       	ret
    13b0:	80 91 90 00 	lds	r24, 0x0090	; 0x800090 <__TEXT_REGION_LENGTH__+0x700090>
    13b4:	8f 77       	andi	r24, 0x7F	; 127
    13b6:	07 c0       	rjmp	.+14     	; 0x13c6 <turnOffPWM+0x6c>
    13b8:	80 91 90 00 	lds	r24, 0x0090	; 0x800090 <__TEXT_REGION_LENGTH__+0x700090>
    13bc:	8f 7d       	andi	r24, 0xDF	; 223
    13be:	03 c0       	rjmp	.+6      	; 0x13c6 <turnOffPWM+0x6c>
    13c0:	80 91 90 00 	lds	r24, 0x0090	; 0x800090 <__TEXT_REGION_LENGTH__+0x700090>
    13c4:	87 7f       	andi	r24, 0xF7	; 247
    13c6:	80 93 90 00 	sts	0x0090, r24	; 0x800090 <__TEXT_REGION_LENGTH__+0x700090>
    13ca:	08 95       	ret
    13cc:	80 91 a0 00 	lds	r24, 0x00A0	; 0x8000a0 <__TEXT_REGION_LENGTH__+0x7000a0>
    13d0:	8f 77       	andi	r24, 0x7F	; 127
    13d2:	07 c0       	rjmp	.+14     	; 0x13e2 <turnOffPWM+0x88>
    13d4:	80 91 a0 00 	lds	r24, 0x00A0	; 0x8000a0 <__TEXT_REGION_LENGTH__+0x7000a0>
    13d8:	8f 7d       	andi	r24, 0xDF	; 223
    13da:	03 c0       	rjmp	.+6      	; 0x13e2 <turnOffPWM+0x88>
    13dc:	80 91 a0 00 	lds	r24, 0x00A0	; 0x8000a0 <__TEXT_REGION_LENGTH__+0x7000a0>
    13e0:	87 7f       	andi	r24, 0xF7	; 247
    13e2:	80 93 a0 00 	sts	0x00A0, r24	; 0x8000a0 <__TEXT_REGION_LENGTH__+0x7000a0>
    13e6:	08 95       	ret
    13e8:	80 91 20 01 	lds	r24, 0x0120	; 0x800120 <__TEXT_REGION_LENGTH__+0x700120>
    13ec:	8f 77       	andi	r24, 0x7F	; 127
    13ee:	07 c0       	rjmp	.+14     	; 0x13fe <turnOffPWM+0xa4>
    13f0:	80 91 20 01 	lds	r24, 0x0120	; 0x800120 <__TEXT_REGION_LENGTH__+0x700120>
    13f4:	8f 7d       	andi	r24, 0xDF	; 223
    13f6:	03 c0       	rjmp	.+6      	; 0x13fe <turnOffPWM+0xa4>
    13f8:	80 91 20 01 	lds	r24, 0x0120	; 0x800120 <__TEXT_REGION_LENGTH__+0x700120>
    13fc:	87 7f       	andi	r24, 0xF7	; 247
    13fe:	80 93 20 01 	sts	0x0120, r24	; 0x800120 <__TEXT_REGION_LENGTH__+0x700120>
    1402:	08 95       	ret

00001404 <pinMode>:
    1404:	cf 93       	push	r28
    1406:	df 93       	push	r29
    1408:	90 e0       	ldi	r25, 0x00	; 0
    140a:	fc 01       	movw	r30, r24
    140c:	e2 5b       	subi	r30, 0xB2	; 178
    140e:	fe 4f       	sbci	r31, 0xFE	; 254
    1410:	24 91       	lpm	r18, Z
    1412:	fc 01       	movw	r30, r24
    1414:	ec 56       	subi	r30, 0x6C	; 108
    1416:	fe 4f       	sbci	r31, 0xFE	; 254
    1418:	84 91       	lpm	r24, Z
    141a:	88 23       	and	r24, r24
    141c:	61 f1       	breq	.+88     	; 0x1476 <pinMode+0x72>
    141e:	90 e0       	ldi	r25, 0x00	; 0
    1420:	88 0f       	add	r24, r24
    1422:	99 1f       	adc	r25, r25
    1424:	fc 01       	movw	r30, r24
    1426:	ec 50       	subi	r30, 0x0C	; 12
    1428:	fe 4f       	sbci	r31, 0xFE	; 254
    142a:	c5 91       	lpm	r28, Z+
    142c:	d4 91       	lpm	r29, Z
    142e:	fc 01       	movw	r30, r24
    1430:	e6 52       	subi	r30, 0x26	; 38
    1432:	fe 4f       	sbci	r31, 0xFE	; 254
    1434:	a5 91       	lpm	r26, Z+
    1436:	b4 91       	lpm	r27, Z
    1438:	61 11       	cpse	r22, r1
    143a:	09 c0       	rjmp	.+18     	; 0x144e <pinMode+0x4a>
    143c:	9f b7       	in	r25, 0x3f	; 63
    143e:	f8 94       	cli
    1440:	88 81       	ld	r24, Y
    1442:	20 95       	com	r18
    1444:	82 23       	and	r24, r18
    1446:	88 83       	st	Y, r24
    1448:	ec 91       	ld	r30, X
    144a:	2e 23       	and	r18, r30
    144c:	0b c0       	rjmp	.+22     	; 0x1464 <pinMode+0x60>
    144e:	62 30       	cpi	r22, 0x02	; 2
    1450:	61 f4       	brne	.+24     	; 0x146a <pinMode+0x66>
    1452:	9f b7       	in	r25, 0x3f	; 63
    1454:	f8 94       	cli
    1456:	88 81       	ld	r24, Y
    1458:	32 2f       	mov	r19, r18
    145a:	30 95       	com	r19
    145c:	83 23       	and	r24, r19
    145e:	88 83       	st	Y, r24
    1460:	ec 91       	ld	r30, X
    1462:	2e 2b       	or	r18, r30
    1464:	2c 93       	st	X, r18
    1466:	9f bf       	out	0x3f, r25	; 63
    1468:	06 c0       	rjmp	.+12     	; 0x1476 <pinMode+0x72>
    146a:	8f b7       	in	r24, 0x3f	; 63
    146c:	f8 94       	cli
    146e:	e8 81       	ld	r30, Y
    1470:	2e 2b       	or	r18, r30
    1472:	28 83       	st	Y, r18
    1474:	8f bf       	out	0x3f, r24	; 63
    1476:	df 91       	pop	r29
    1478:	cf 91       	pop	r28
    147a:	08 95       	ret

0000147c <digitalWrite>:
    147c:	1f 93       	push	r17
    147e:	cf 93       	push	r28
    1480:	df 93       	push	r29
    1482:	28 2f       	mov	r18, r24
    1484:	30 e0       	ldi	r19, 0x00	; 0
    1486:	f9 01       	movw	r30, r18
    1488:	e8 5f       	subi	r30, 0xF8	; 248
    148a:	fe 4f       	sbci	r31, 0xFE	; 254
    148c:	84 91       	lpm	r24, Z
    148e:	f9 01       	movw	r30, r18
    1490:	e2 5b       	subi	r30, 0xB2	; 178
    1492:	fe 4f       	sbci	r31, 0xFE	; 254
    1494:	d4 91       	lpm	r29, Z
    1496:	f9 01       	movw	r30, r18
    1498:	ec 56       	subi	r30, 0x6C	; 108
    149a:	fe 4f       	sbci	r31, 0xFE	; 254
    149c:	c4 91       	lpm	r28, Z
    149e:	cc 23       	and	r28, r28
    14a0:	b9 f0       	breq	.+46     	; 0x14d0 <digitalWrite+0x54>
    14a2:	16 2f       	mov	r17, r22
    14a4:	81 11       	cpse	r24, r1
    14a6:	59 df       	rcall	.-334    	; 0x135a <turnOffPWM>
    14a8:	ec 2f       	mov	r30, r28
    14aa:	f0 e0       	ldi	r31, 0x00	; 0
    14ac:	ee 0f       	add	r30, r30
    14ae:	ff 1f       	adc	r31, r31
    14b0:	e6 52       	subi	r30, 0x26	; 38
    14b2:	fe 4f       	sbci	r31, 0xFE	; 254
    14b4:	a5 91       	lpm	r26, Z+
    14b6:	b4 91       	lpm	r27, Z
    14b8:	9f b7       	in	r25, 0x3f	; 63
    14ba:	f8 94       	cli
    14bc:	11 11       	cpse	r17, r1
    14be:	04 c0       	rjmp	.+8      	; 0x14c8 <digitalWrite+0x4c>
    14c0:	8c 91       	ld	r24, X
    14c2:	d0 95       	com	r29
    14c4:	d8 23       	and	r29, r24
    14c6:	02 c0       	rjmp	.+4      	; 0x14cc <digitalWrite+0x50>
    14c8:	ec 91       	ld	r30, X
    14ca:	de 2b       	or	r29, r30
    14cc:	dc 93       	st	X, r29
    14ce:	9f bf       	out	0x3f, r25	; 63
    14d0:	df 91       	pop	r29
    14d2:	cf 91       	pop	r28
    14d4:	1f 91       	pop	r17
    14d6:	08 95       	ret

000014d8 <_Z15configPinMotorsv>:
		else{	// if we cannot: if(*c_limit>(-MAX_STEPS_SINGLE_DIR_BASE))
			return(0);//cannot make more steps in this direction
		}
		
	}
}
    14d8:	61 e0       	ldi	r22, 0x01	; 1
    14da:	86 e1       	ldi	r24, 0x16	; 22
    14dc:	93 df       	rcall	.-218    	; 0x1404 <pinMode>
    14de:	61 e0       	ldi	r22, 0x01	; 1
    14e0:	88 e1       	ldi	r24, 0x18	; 24
    14e2:	90 df       	rcall	.-224    	; 0x1404 <pinMode>
    14e4:	61 e0       	ldi	r22, 0x01	; 1
    14e6:	82 e0       	ldi	r24, 0x02	; 2
    14e8:	8d df       	rcall	.-230    	; 0x1404 <pinMode>
    14ea:	61 e0       	ldi	r22, 0x01	; 1
    14ec:	83 e0       	ldi	r24, 0x03	; 3
    14ee:	8a df       	rcall	.-236    	; 0x1404 <pinMode>
    14f0:	61 e0       	ldi	r22, 0x01	; 1
    14f2:	84 e0       	ldi	r24, 0x04	; 4
    14f4:	87 df       	rcall	.-242    	; 0x1404 <pinMode>
    14f6:	61 e0       	ldi	r22, 0x01	; 1
    14f8:	85 e0       	ldi	r24, 0x05	; 5
    14fa:	84 df       	rcall	.-248    	; 0x1404 <pinMode>
    14fc:	61 e0       	ldi	r22, 0x01	; 1
    14fe:	8a e1       	ldi	r24, 0x1A	; 26
    1500:	81 df       	rcall	.-254    	; 0x1404 <pinMode>
    1502:	61 e0       	ldi	r22, 0x01	; 1
    1504:	86 e0       	ldi	r24, 0x06	; 6
    1506:	7e df       	rcall	.-260    	; 0x1404 <pinMode>
    1508:	61 e0       	ldi	r22, 0x01	; 1
    150a:	87 e0       	ldi	r24, 0x07	; 7
    150c:	7b df       	rcall	.-266    	; 0x1404 <pinMode>
    150e:	61 e0       	ldi	r22, 0x01	; 1
    1510:	89 e0       	ldi	r24, 0x09	; 9
    1512:	78 df       	rcall	.-272    	; 0x1404 <pinMode>
    1514:	61 e0       	ldi	r22, 0x01	; 1
    1516:	8a e0       	ldi	r24, 0x0A	; 10
    1518:	75 df       	rcall	.-278    	; 0x1404 <pinMode>
    151a:	61 e0       	ldi	r22, 0x01	; 1
    151c:	8b e0       	ldi	r24, 0x0B	; 11
    151e:	72 df       	rcall	.-284    	; 0x1404 <pinMode>
    1520:	61 e0       	ldi	r22, 0x01	; 1
    1522:	8c e0       	ldi	r24, 0x0C	; 12
    1524:	6f df       	rcall	.-290    	; 0x1404 <pinMode>
    1526:	61 e0       	ldi	r22, 0x01	; 1
    1528:	88 e0       	ldi	r24, 0x08	; 8
    152a:	6c cf       	rjmp	.-296    	; 0x1404 <pinMode>

0000152c <_Z17mBaseSetMicroStep15TYPE_MICRO_STEP>:
    152c:	82 30       	cpi	r24, 0x02	; 2
    152e:	a9 f0       	breq	.+42     	; 0x155a <_Z17mBaseSetMicroStep15TYPE_MICRO_STEP+0x2e>
    1530:	28 f4       	brcc	.+10     	; 0x153c <_Z17mBaseSetMicroStep15TYPE_MICRO_STEP+0x10>
    1532:	88 23       	and	r24, r24
    1534:	41 f0       	breq	.+16     	; 0x1546 <_Z17mBaseSetMicroStep15TYPE_MICRO_STEP+0x1a>
    1536:	81 30       	cpi	r24, 0x01	; 1
    1538:	59 f0       	breq	.+22     	; 0x1550 <_Z17mBaseSetMicroStep15TYPE_MICRO_STEP+0x24>
    153a:	08 95       	ret
    153c:	83 30       	cpi	r24, 0x03	; 3
    153e:	a9 f0       	breq	.+42     	; 0x156a <_Z17mBaseSetMicroStep15TYPE_MICRO_STEP+0x3e>
    1540:	84 30       	cpi	r24, 0x04	; 4
    1542:	a9 f0       	breq	.+42     	; 0x156e <_Z17mBaseSetMicroStep15TYPE_MICRO_STEP+0x42>
    1544:	08 95       	ret
    1546:	60 e0       	ldi	r22, 0x00	; 0
    1548:	82 e0       	ldi	r24, 0x02	; 2
    154a:	98 df       	rcall	.-208    	; 0x147c <digitalWrite>
    154c:	60 e0       	ldi	r22, 0x00	; 0
    154e:	09 c0       	rjmp	.+18     	; 0x1562 <_Z17mBaseSetMicroStep15TYPE_MICRO_STEP+0x36>
    1550:	60 e0       	ldi	r22, 0x00	; 0
    1552:	82 e0       	ldi	r24, 0x02	; 2
    1554:	93 df       	rcall	.-218    	; 0x147c <digitalWrite>
    1556:	60 e0       	ldi	r22, 0x00	; 0
    1558:	0e c0       	rjmp	.+28     	; 0x1576 <_Z17mBaseSetMicroStep15TYPE_MICRO_STEP+0x4a>
    155a:	60 e0       	ldi	r22, 0x00	; 0
    155c:	82 e0       	ldi	r24, 0x02	; 2
    155e:	8e df       	rcall	.-228    	; 0x147c <digitalWrite>
    1560:	61 e0       	ldi	r22, 0x01	; 1
    1562:	83 e0       	ldi	r24, 0x03	; 3
    1564:	8b df       	rcall	.-234    	; 0x147c <digitalWrite>
    1566:	60 e0       	ldi	r22, 0x00	; 0
    1568:	09 c0       	rjmp	.+18     	; 0x157c <_Z17mBaseSetMicroStep15TYPE_MICRO_STEP+0x50>
    156a:	60 e0       	ldi	r22, 0x00	; 0
    156c:	01 c0       	rjmp	.+2      	; 0x1570 <_Z17mBaseSetMicroStep15TYPE_MICRO_STEP+0x44>
    156e:	61 e0       	ldi	r22, 0x01	; 1
    1570:	82 e0       	ldi	r24, 0x02	; 2
    1572:	84 df       	rcall	.-248    	; 0x147c <digitalWrite>
    1574:	61 e0       	ldi	r22, 0x01	; 1
    1576:	83 e0       	ldi	r24, 0x03	; 3
    1578:	81 df       	rcall	.-254    	; 0x147c <digitalWrite>
    157a:	61 e0       	ldi	r22, 0x01	; 1
    157c:	84 e0       	ldi	r24, 0x04	; 4
    157e:	7e cf       	rjmp	.-260    	; 0x147c <digitalWrite>

00001580 <_Z16mTopSetMicroStep15TYPE_MICRO_STEP>:
    1580:	82 30       	cpi	r24, 0x02	; 2
    1582:	a9 f0       	breq	.+42     	; 0x15ae <_Z16mTopSetMicroStep15TYPE_MICRO_STEP+0x2e>
    1584:	28 f4       	brcc	.+10     	; 0x1590 <_Z16mTopSetMicroStep15TYPE_MICRO_STEP+0x10>
    1586:	88 23       	and	r24, r24
    1588:	41 f0       	breq	.+16     	; 0x159a <_Z16mTopSetMicroStep15TYPE_MICRO_STEP+0x1a>
    158a:	81 30       	cpi	r24, 0x01	; 1
    158c:	59 f0       	breq	.+22     	; 0x15a4 <_Z16mTopSetMicroStep15TYPE_MICRO_STEP+0x24>
    158e:	08 95       	ret
    1590:	83 30       	cpi	r24, 0x03	; 3
    1592:	a9 f0       	breq	.+42     	; 0x15be <_Z16mTopSetMicroStep15TYPE_MICRO_STEP+0x3e>
    1594:	84 30       	cpi	r24, 0x04	; 4
    1596:	a9 f0       	breq	.+42     	; 0x15c2 <_Z16mTopSetMicroStep15TYPE_MICRO_STEP+0x42>
    1598:	08 95       	ret
    159a:	60 e0       	ldi	r22, 0x00	; 0
    159c:	89 e0       	ldi	r24, 0x09	; 9
    159e:	6e df       	rcall	.-292    	; 0x147c <digitalWrite>
    15a0:	60 e0       	ldi	r22, 0x00	; 0
    15a2:	09 c0       	rjmp	.+18     	; 0x15b6 <_Z16mTopSetMicroStep15TYPE_MICRO_STEP+0x36>
    15a4:	60 e0       	ldi	r22, 0x00	; 0
    15a6:	89 e0       	ldi	r24, 0x09	; 9
    15a8:	69 df       	rcall	.-302    	; 0x147c <digitalWrite>
    15aa:	60 e0       	ldi	r22, 0x00	; 0
    15ac:	0e c0       	rjmp	.+28     	; 0x15ca <_Z16mTopSetMicroStep15TYPE_MICRO_STEP+0x4a>
    15ae:	60 e0       	ldi	r22, 0x00	; 0
    15b0:	89 e0       	ldi	r24, 0x09	; 9
    15b2:	64 df       	rcall	.-312    	; 0x147c <digitalWrite>
    15b4:	61 e0       	ldi	r22, 0x01	; 1
    15b6:	8a e0       	ldi	r24, 0x0A	; 10
    15b8:	61 df       	rcall	.-318    	; 0x147c <digitalWrite>
    15ba:	60 e0       	ldi	r22, 0x00	; 0
    15bc:	09 c0       	rjmp	.+18     	; 0x15d0 <_Z16mTopSetMicroStep15TYPE_MICRO_STEP+0x50>
    15be:	60 e0       	ldi	r22, 0x00	; 0
    15c0:	01 c0       	rjmp	.+2      	; 0x15c4 <_Z16mTopSetMicroStep15TYPE_MICRO_STEP+0x44>
    15c2:	61 e0       	ldi	r22, 0x01	; 1
    15c4:	89 e0       	ldi	r24, 0x09	; 9
    15c6:	5a df       	rcall	.-332    	; 0x147c <digitalWrite>
    15c8:	61 e0       	ldi	r22, 0x01	; 1
    15ca:	8a e0       	ldi	r24, 0x0A	; 10
    15cc:	57 df       	rcall	.-338    	; 0x147c <digitalWrite>
    15ce:	61 e0       	ldi	r22, 0x01	; 1
    15d0:	8b e0       	ldi	r24, 0x0B	; 11
    15d2:	54 cf       	rjmp	.-344    	; 0x147c <digitalWrite>

000015d4 <_Z14checkBaseBlockv>:

void checkBaseBlock(void){
	// Turn on the limiting led
	if(gcs.base_limit >= MAX_STEPS_SINGLE_DIR_BASE){
    15d4:	80 91 22 05 	lds	r24, 0x0522	; 0x800522 <gcs>
    15d8:	90 91 23 05 	lds	r25, 0x0523	; 0x800523 <gcs+0x1>
    15dc:	a0 91 24 05 	lds	r26, 0x0524	; 0x800524 <gcs+0x2>
    15e0:	b0 91 25 05 	lds	r27, 0x0525	; 0x800525 <gcs+0x3>
    15e4:	81 15       	cp	r24, r1
    15e6:	29 e1       	ldi	r18, 0x19	; 25
    15e8:	92 07       	cpc	r25, r18
    15ea:	a1 05       	cpc	r26, r1
    15ec:	b1 05       	cpc	r27, r1
    15ee:	24 f0       	brlt	.+8      	; 0x15f8 <_Z14checkBaseBlockv+0x24>
		gfs.positive_limit = 1;
    15f0:	81 e0       	ldi	r24, 0x01	; 1
    15f2:	80 93 1f 05 	sts	0x051F, r24	; 0x80051f <gfs+0x1>
    15f6:	08 c0       	rjmp	.+16     	; 0x1608 <_Z14checkBaseBlockv+0x34>
		digitalWrite(PIN_LED_BASE_LOCK, HIGH);
	}
	else if(gcs.base_limit <= -MAX_STEPS_SINGLE_DIR_BASE){
    15f8:	81 30       	cpi	r24, 0x01	; 1
    15fa:	97 4e       	sbci	r25, 0xE7	; 231
    15fc:	af 4f       	sbci	r26, 0xFF	; 255
    15fe:	bf 4f       	sbci	r27, 0xFF	; 255
    1600:	2c f4       	brge	.+10     	; 0x160c <_Z14checkBaseBlockv+0x38>
		gfs.negative_limit = 1;
    1602:	81 e0       	ldi	r24, 0x01	; 1
    1604:	80 93 20 05 	sts	0x0520, r24	; 0x800520 <gfs+0x2>
		digitalWrite(PIN_LED_BASE_LOCK, HIGH);
    1608:	61 e0       	ldi	r22, 0x01	; 1
    160a:	05 c0       	rjmp	.+10     	; 0x1616 <_Z14checkBaseBlockv+0x42>
	}
	else{
		gfs.positive_limit = gfs.negative_limit = 0;
    160c:	10 92 20 05 	sts	0x0520, r1	; 0x800520 <gfs+0x2>
    1610:	10 92 1f 05 	sts	0x051F, r1	; 0x80051f <gfs+0x1>
		digitalWrite(PIN_LED_BASE_LOCK, LOW);
    1614:	60 e0       	ldi	r22, 0x00	; 0
    1616:	89 e1       	ldi	r24, 0x19	; 25
    1618:	31 cf       	rjmp	.-414    	; 0x147c <digitalWrite>

0000161a <_Z14limitBaseStepsv>:
	}
}

void limitBaseSteps(void){
	//check if we can make one more step. Set the flags if we cannot, if we can, rise the step pin
	if (gs_base_ctrl.f_dir == DIR_NEGATIVE) {          //if we are turning in the CCW direction
    161a:	20 91 f6 04 	lds	r18, 0x04F6	; 0x8004f6 <gs_base_ctrl+0x4>
    161e:	80 91 22 05 	lds	r24, 0x0522	; 0x800522 <gcs>
    1622:	90 91 23 05 	lds	r25, 0x0523	; 0x800523 <gcs+0x1>
    1626:	a0 91 24 05 	lds	r26, 0x0524	; 0x800524 <gcs+0x2>
    162a:	b0 91 25 05 	lds	r27, 0x0525	; 0x800525 <gcs+0x3>
    162e:	21 11       	cpse	r18, r1
    1630:	0b c0       	rjmp	.+22     	; 0x1648 <_Z14limitBaseStepsv+0x2e>
		if(gcs.base_limit > -MAX_STEPS_SINGLE_DIR_BASE){    //if we still able to turn a bit more:
    1632:	81 30       	cpi	r24, 0x01	; 1
    1634:	27 ee       	ldi	r18, 0xE7	; 231
    1636:	92 07       	cpc	r25, r18
    1638:	2f ef       	ldi	r18, 0xFF	; 255
    163a:	a2 07       	cpc	r26, r18
    163c:	b2 07       	cpc	r27, r18
    163e:	b4 f0       	brlt	.+44     	; 0x166c <_Z14limitBaseStepsv+0x52>
			gcs.base_limit--;
    1640:	01 97       	sbiw	r24, 0x01	; 1
    1642:	a1 09       	sbc	r26, r1
    1644:	b1 09       	sbc	r27, r1
    1646:	09 c0       	rjmp	.+18     	; 0x165a <_Z14limitBaseStepsv+0x40>
			SET_MBASE_STEP_PIN;
		}
	}
	else{                           //if we are turning in the CW direction
		if(gcs.base_limit < MAX_STEPS_SINGLE_DIR_BASE){   //if we still able to turn a bit more:
    1648:	81 15       	cp	r24, r1
    164a:	29 e1       	ldi	r18, 0x19	; 25
    164c:	92 07       	cpc	r25, r18
    164e:	a1 05       	cpc	r26, r1
    1650:	b1 05       	cpc	r27, r1
    1652:	64 f4       	brge	.+24     	; 0x166c <_Z14limitBaseStepsv+0x52>
			gcs.base_limit++;
    1654:	01 96       	adiw	r24, 0x01	; 1
    1656:	a1 1d       	adc	r26, r1
    1658:	b1 1d       	adc	r27, r1
    165a:	80 93 22 05 	sts	0x0522, r24	; 0x800522 <gcs>
    165e:	90 93 23 05 	sts	0x0523, r25	; 0x800523 <gcs+0x1>
    1662:	a0 93 24 05 	sts	0x0524, r26	; 0x800524 <gcs+0x2>
    1666:	b0 93 25 05 	sts	0x0525, r27	; 0x800525 <gcs+0x3>
			SET_MBASE_STEP_PIN;
    166a:	12 9a       	sbi	0x02, 2	; 2
    166c:	08 95       	ret

0000166e <_Z18readNewSetCommandsv>:
  
}

void readNewSetCommands(void){
	//get the commands for next speed and number of steps for the both motor
	gs_base_ctrl.prog_speed = (int16_t)(gv_ctrl_com[gc_ctrl_com] |((uint16_t)(gv_ctrl_com[gc_ctrl_com+1])<<8));
    166e:	20 91 60 03 	lds	r18, 0x0360	; 0x800360 <__data_end>
    1672:	30 91 61 03 	lds	r19, 0x0361	; 0x800361 <__data_end+0x1>
    1676:	a2 ef       	ldi	r26, 0xF2	; 242
    1678:	b4 e0       	ldi	r27, 0x04	; 4
    167a:	f9 01       	movw	r30, r18
    167c:	ee 59       	subi	r30, 0x9E	; 158
    167e:	fc 4f       	sbci	r31, 0xFC	; 252
    1680:	81 81       	ldd	r24, Z+1	; 0x01
    1682:	90 e0       	ldi	r25, 0x00	; 0
    1684:	98 2f       	mov	r25, r24
    1686:	88 27       	eor	r24, r24
    1688:	40 81       	ld	r20, Z
    168a:	84 2b       	or	r24, r20
    168c:	19 96       	adiw	r26, 0x09	; 9
    168e:	9c 93       	st	X, r25
    1690:	8e 93       	st	-X, r24
    1692:	18 97       	sbiw	r26, 0x08	; 8
	gs_base_ctrl.prog_steps = (uint16_t)(gv_ctrl_com[gc_ctrl_com+2] |((uint16_t)(gv_ctrl_com[gc_ctrl_com+3])<<8));
    1694:	83 81       	ldd	r24, Z+3	; 0x03
    1696:	90 e0       	ldi	r25, 0x00	; 0
    1698:	98 2f       	mov	r25, r24
    169a:	88 27       	eor	r24, r24
    169c:	42 81       	ldd	r20, Z+2	; 0x02
    169e:	84 2b       	or	r24, r20
    16a0:	17 96       	adiw	r26, 0x07	; 7
    16a2:	9c 93       	st	X, r25
    16a4:	8e 93       	st	-X, r24
    16a6:	16 97       	sbiw	r26, 0x06	; 6
	
	gs_top_ctrl.prog_speed = (int16_t)(gv_ctrl_com[gc_ctrl_com+4] |((uint16_t)(gv_ctrl_com[gc_ctrl_com+5])<<8));
    16a8:	a8 e0       	ldi	r26, 0x08	; 8
    16aa:	b5 e0       	ldi	r27, 0x05	; 5
    16ac:	85 81       	ldd	r24, Z+5	; 0x05
    16ae:	90 e0       	ldi	r25, 0x00	; 0
    16b0:	98 2f       	mov	r25, r24
    16b2:	88 27       	eor	r24, r24
    16b4:	44 81       	ldd	r20, Z+4	; 0x04
    16b6:	84 2b       	or	r24, r20
    16b8:	19 96       	adiw	r26, 0x09	; 9
    16ba:	9c 93       	st	X, r25
    16bc:	8e 93       	st	-X, r24
    16be:	18 97       	sbiw	r26, 0x08	; 8
	gs_top_ctrl.prog_steps = (uint16_t)(gv_ctrl_com[gc_ctrl_com+6] |((uint16_t)(gv_ctrl_com[gc_ctrl_com+7])<<8));
    16c0:	87 81       	ldd	r24, Z+7	; 0x07
    16c2:	90 e0       	ldi	r25, 0x00	; 0
    16c4:	98 2f       	mov	r25, r24
    16c6:	88 27       	eor	r24, r24
    16c8:	46 81       	ldd	r20, Z+6	; 0x06
    16ca:	84 2b       	or	r24, r20
    16cc:	17 96       	adiw	r26, 0x07	; 7
    16ce:	9c 93       	st	X, r25
    16d0:	8e 93       	st	-X, r24
    16d2:	16 97       	sbiw	r26, 0x06	; 6
	
	gc_ctrl_com = gc_ctrl_com + 8;
    16d4:	28 5f       	subi	r18, 0xF8	; 248
    16d6:	3f 4f       	sbci	r19, 0xFF	; 255
    16d8:	30 93 61 03 	sts	0x0361, r19	; 0x800361 <__data_end+0x1>
    16dc:	20 93 60 03 	sts	0x0360, r18	; 0x800360 <__data_end>
    16e0:	08 95       	ret

000016e2 <_Z15processCommandsP12s_motor_ctrl>:
}

uint8_t processCommands(s_motor_ctrl *s){
    16e2:	cf 92       	push	r12
    16e4:	df 92       	push	r13
    16e6:	ef 92       	push	r14
    16e8:	ff 92       	push	r15
    16ea:	0f 93       	push	r16
    16ec:	1f 93       	push	r17
    16ee:	cf 93       	push	r28
    16f0:	df 93       	push	r29
    16f2:	ec 01       	movw	r28, r24
	//return 1 if we should keep turning
	float aux_speed = abs(s->prog_speed);
    16f4:	08 85       	ldd	r16, Y+8	; 0x08
    16f6:	19 85       	ldd	r17, Y+9	; 0x09
	
	if (s->prog_speed == 0x8000){	//the end of command set
    16f8:	01 15       	cp	r16, r1
    16fa:	80 e8       	ldi	r24, 0x80	; 128
    16fc:	18 07       	cpc	r17, r24
    16fe:	39 f4       	brne	.+14     	; 0x170e <_Z15processCommandsP12s_motor_ctrl+0x2c>
		#ifdef _DEBUG
			Serial.println("Controle: fim dos comandos");
    1700:	62 e6       	ldi	r22, 0x62	; 98
    1702:	72 e0       	ldi	r23, 0x02	; 2
    1704:	86 e2       	ldi	r24, 0x26	; 38
    1706:	95 e0       	ldi	r25, 0x05	; 5
    1708:	9d dc       	rcall	.-1734   	; 0x1044 <_ZN5Print7printlnEPKc>
		#endif // _DEBUG
		return(0);
    170a:	80 e0       	ldi	r24, 0x00	; 0
    170c:	c2 c0       	rjmp	.+388    	; 0x1892 <_Z15processCommandsP12s_motor_ctrl+0x1b0>
	}
	
	
	if (abs(s->prog_speed) < INITIAL_SPEED ){	//the speed zero, we should not move and deal with number of steps as milliseconds
    170e:	c8 01       	movw	r24, r16
    1710:	09 96       	adiw	r24, 0x09	; 9
    1712:	43 97       	sbiw	r24, 0x13	; 19
    1714:	48 f4       	brcc	.+18     	; 0x1728 <_Z15processCommandsP12s_motor_ctrl+0x46>
		s->speed = 0;
    1716:	1a 8a       	std	Y+18, r1	; 0x12
    1718:	1b 8a       	std	Y+19, r1	; 0x13
    171a:	1c 8a       	std	Y+20, r1	; 0x14
    171c:	1d 8a       	std	Y+21, r1	; 0x15
		s->n_to_cruse_speed = 0;
    171e:	1b 86       	std	Y+11, r1	; 0x0b
    1720:	1a 86       	std	Y+10, r1	; 0x0a
		s->steps_breaking = 0;
    1722:	1f 86       	std	Y+15, r1	; 0x0f
    1724:	1e 86       	std	Y+14, r1	; 0x0e
    1726:	a8 c0       	rjmp	.+336    	; 0x1878 <_Z15processCommandsP12s_motor_ctrl+0x196>
	gc_ctrl_com = gc_ctrl_com + 8;
}

uint8_t processCommands(s_motor_ctrl *s){
	//return 1 if we should keep turning
	float aux_speed = abs(s->prog_speed);
    1728:	b8 01       	movw	r22, r16
    172a:	17 ff       	sbrs	r17, 7
    172c:	04 c0       	rjmp	.+8      	; 0x1736 <_Z15processCommandsP12s_motor_ctrl+0x54>
    172e:	66 27       	eor	r22, r22
    1730:	77 27       	eor	r23, r23
    1732:	60 1b       	sub	r22, r16
    1734:	71 0b       	sbc	r23, r17
    1736:	07 2e       	mov	r0, r23
    1738:	00 0c       	add	r0, r0
    173a:	88 0b       	sbc	r24, r24
    173c:	99 0b       	sbc	r25, r25
    173e:	bc d4       	rcall	.+2424   	; 0x20b8 <__floatsisf>
    1740:	6b 01       	movw	r12, r22
    1742:	7c 01       	movw	r14, r24
	if (abs(s->prog_speed) < INITIAL_SPEED ){	//the speed zero, we should not move and deal with number of steps as milliseconds
		s->speed = 0;
		s->n_to_cruse_speed = 0;
		s->steps_breaking = 0;
	}
	else if(s->prog_speed >= INITIAL_SPEED){	//turning in the positive direction
    1744:	0a 30       	cpi	r16, 0x0A	; 10
    1746:	11 05       	cpc	r17, r1
    1748:	0c f4       	brge	.+2      	; 0x174c <_Z15processCommandsP12s_motor_ctrl+0x6a>
    174a:	46 c0       	rjmp	.+140    	; 0x17d8 <_Z15processCommandsP12s_motor_ctrl+0xf6>
		#ifdef _DEBUG
			Serial.println("Vel. Pos.");
    174c:	6d e7       	ldi	r22, 0x7D	; 125
    174e:	72 e0       	ldi	r23, 0x02	; 2
    1750:	86 e2       	ldi	r24, 0x26	; 38
    1752:	95 e0       	ldi	r25, 0x05	; 5
    1754:	77 dc       	rcall	.-1810   	; 0x1044 <_ZN5Print7printlnEPKc>
		#endif // _DEBUG
		s->speed = INITIAL_SPEED;
    1756:	80 e0       	ldi	r24, 0x00	; 0
    1758:	90 e0       	ldi	r25, 0x00	; 0
    175a:	a0 e2       	ldi	r26, 0x20	; 32
    175c:	b1 e4       	ldi	r27, 0x41	; 65
    175e:	8a 8b       	std	Y+18, r24	; 0x12
    1760:	9b 8b       	std	Y+19, r25	; 0x13
    1762:	ac 8b       	std	Y+20, r26	; 0x14
    1764:	bd 8b       	std	Y+21, r27	; 0x15
		s->f_dir = DIR_POSITIVE;
    1766:	81 e0       	ldi	r24, 0x01	; 1
    1768:	8c 83       	std	Y+4, r24	; 0x04
		s->n_to_cruse_speed = (uint16_t)(((aux_speed*aux_speed) - INITIAL_SPEED_2)/DEN_CALC_ACC_STEPS); //TORRICELLI EQUATION
    176a:	a7 01       	movw	r20, r14
    176c:	96 01       	movw	r18, r12
    176e:	c7 01       	movw	r24, r14
    1770:	b6 01       	movw	r22, r12
    1772:	05 d5       	rcall	.+2570   	; 0x217e <__mulsf3>
    1774:	20 e0       	ldi	r18, 0x00	; 0
    1776:	30 e0       	ldi	r19, 0x00	; 0
    1778:	48 ec       	ldi	r20, 0xC8	; 200
    177a:	52 e4       	ldi	r21, 0x42	; 66
    177c:	c4 d3       	rcall	.+1928   	; 0x1f06 <__subsf3>
    177e:	20 e0       	ldi	r18, 0x00	; 0
    1780:	30 e0       	ldi	r19, 0x00	; 0
    1782:	42 e2       	ldi	r20, 0x22	; 34
    1784:	53 e4       	ldi	r21, 0x43	; 67
    1786:	2b d4       	rcall	.+2134   	; 0x1fde <__divsf3>
    1788:	91 d9       	rcall	.-3294   	; 0xaac <__fixunssfsi>
    178a:	7b 87       	std	Y+11, r23	; 0x0b
    178c:	6a 87       	std	Y+10, r22	; 0x0a
		s->steps_breaking = (uint16_t)(((aux_speed*aux_speed) - INITIAL_SPEED_2)/DEN_CALC_ACC_STEPS);
    178e:	7f 87       	std	Y+15, r23	; 0x0f
    1790:	6e 87       	std	Y+14, r22	; 0x0e
		if(s->prog_steps >= (s->steps_breaking+s->n_to_cruse_speed)){	//if we have enough time to speed up and break, we can go up to the programmed speed
    1792:	4e 81       	ldd	r20, Y+6	; 0x06
    1794:	5f 81       	ldd	r21, Y+7	; 0x07
    1796:	9b 01       	movw	r18, r22
    1798:	22 0f       	add	r18, r18
    179a:	33 1f       	adc	r19, r19
    179c:	42 17       	cp	r20, r18
    179e:	53 07       	cpc	r21, r19
    17a0:	08 f0       	brcs	.+2      	; 0x17a4 <_Z15processCommandsP12s_motor_ctrl+0xc2>
				Serial.println("Velocidade de cruzeiro sem cortes");
			#endif // _DEBUG
		}
		else{			//if we do not have enough steps to speed up to programmed speed, then we must reduce it
			#ifdef _DEBUG
				Serial.println("Velocidade de cruzeiro com cortes");
    17a2:	44 c0       	rjmp	.+136    	; 0x182c <_Z15processCommandsP12s_motor_ctrl+0x14a>
    17a4:	69 ea       	ldi	r22, 0xA9	; 169
    17a6:	72 e0       	ldi	r23, 0x02	; 2
    17a8:	86 e2       	ldi	r24, 0x26	; 38
    17aa:	95 e0       	ldi	r25, 0x05	; 5
			#endif // _DEBUG
			s->n_to_cruse_speed = RATIO_ACC_BREAKING*s->prog_steps;
    17ac:	4b dc       	rcall	.-1898   	; 0x1044 <_ZN5Print7printlnEPKc>
    17ae:	0e 81       	ldd	r16, Y+6	; 0x06
    17b0:	1f 81       	ldd	r17, Y+7	; 0x07
    17b2:	b8 01       	movw	r22, r16
    17b4:	80 e0       	ldi	r24, 0x00	; 0
    17b6:	90 e0       	ldi	r25, 0x00	; 0
    17b8:	7d d4       	rcall	.+2298   	; 0x20b4 <__floatunsisf>
    17ba:	20 e0       	ldi	r18, 0x00	; 0
    17bc:	30 e0       	ldi	r19, 0x00	; 0
    17be:	40 e0       	ldi	r20, 0x00	; 0
    17c0:	5f e3       	ldi	r21, 0x3F	; 63
    17c2:	dd d4       	rcall	.+2490   	; 0x217e <__mulsf3>
    17c4:	73 d9       	rcall	.-3354   	; 0xaac <__fixunssfsi>
    17c6:	7b 87       	std	Y+11, r23	; 0x0b
			s->steps_breaking = s->prog_steps-s->n_to_cruse_speed;
    17c8:	6a 87       	std	Y+10, r22	; 0x0a
    17ca:	06 1b       	sub	r16, r22
    17cc:	17 0b       	sbc	r17, r23
			s->prog_speed = sqrt(INITIAL_SPEED_2 + 2*ACC_MODULE*s->n_to_cruse_speed*D_THETA);				//TORRICELLI EQUATION
    17ce:	1f 87       	std	Y+15, r17	; 0x0f
    17d0:	0e 87       	std	Y+14, r16	; 0x0e
    17d2:	8a e0       	ldi	r24, 0x0A	; 10
		}
		
	}
	else{												//NEGATIVE SPEED - be careful with signal
		#ifdef _DEBUG
			Serial.println("Vel. Neg.");
    17d4:	90 e0       	ldi	r25, 0x00	; 0
    17d6:	4e c0       	rjmp	.+156    	; 0x1874 <_Z15processCommandsP12s_motor_ctrl+0x192>
    17d8:	6b ec       	ldi	r22, 0xCB	; 203
    17da:	72 e0       	ldi	r23, 0x02	; 2
    17dc:	86 e2       	ldi	r24, 0x26	; 38
    17de:	95 e0       	ldi	r25, 0x05	; 5
		#endif // _DEBUG
		s->speed = INITIAL_SPEED;
    17e0:	31 dc       	rcall	.-1950   	; 0x1044 <_ZN5Print7printlnEPKc>
    17e2:	80 e0       	ldi	r24, 0x00	; 0
    17e4:	90 e0       	ldi	r25, 0x00	; 0
    17e6:	a0 e2       	ldi	r26, 0x20	; 32
    17e8:	b1 e4       	ldi	r27, 0x41	; 65
    17ea:	8a 8b       	std	Y+18, r24	; 0x12
		s->f_dir = DIR_NEGATIVE;
    17ec:	9b 8b       	std	Y+19, r25	; 0x13
		s->n_to_cruse_speed = (uint16_t)(((aux_speed*aux_speed) - INITIAL_SPEED_2)/DEN_CALC_ACC_STEPS); //TORRICELLI EQUATION
    17ee:	ac 8b       	std	Y+20, r26	; 0x14
    17f0:	bd 8b       	std	Y+21, r27	; 0x15
    17f2:	1c 82       	std	Y+4, r1	; 0x04
    17f4:	a7 01       	movw	r20, r14
    17f6:	96 01       	movw	r18, r12
    17f8:	c7 01       	movw	r24, r14
    17fa:	b6 01       	movw	r22, r12
    17fc:	c0 d4       	rcall	.+2432   	; 0x217e <__mulsf3>
    17fe:	20 e0       	ldi	r18, 0x00	; 0
    1800:	30 e0       	ldi	r19, 0x00	; 0
    1802:	48 ec       	ldi	r20, 0xC8	; 200
    1804:	52 e4       	ldi	r21, 0x42	; 66
    1806:	7f d3       	rcall	.+1790   	; 0x1f06 <__subsf3>
    1808:	20 e0       	ldi	r18, 0x00	; 0
    180a:	30 e0       	ldi	r19, 0x00	; 0
    180c:	42 e2       	ldi	r20, 0x22	; 34
    180e:	53 e4       	ldi	r21, 0x43	; 67
    1810:	e6 d3       	rcall	.+1996   	; 0x1fde <__divsf3>
    1812:	4c d9       	rcall	.-3432   	; 0xaac <__fixunssfsi>
    1814:	7b 87       	std	Y+11, r23	; 0x0b
		s->steps_breaking = (uint16_t)(((aux_speed*aux_speed) - INITIAL_SPEED_2)/DEN_CALC_ACC_STEPS);
    1816:	6a 87       	std	Y+10, r22	; 0x0a
    1818:	7f 87       	std	Y+15, r23	; 0x0f
		if(s->prog_steps >= (s->steps_breaking+s->n_to_cruse_speed)){	//if we have enough time to speed up and break, we can go up to the programmed speed
    181a:	6e 87       	std	Y+14, r22	; 0x0e
    181c:	4e 81       	ldd	r20, Y+6	; 0x06
    181e:	5f 81       	ldd	r21, Y+7	; 0x07
    1820:	9b 01       	movw	r18, r22
    1822:	22 0f       	add	r18, r18
    1824:	33 1f       	adc	r19, r19
			s->n_to_start_breaking = s->prog_steps - s->steps_breaking;
    1826:	42 17       	cp	r20, r18
    1828:	53 07       	cpc	r21, r19
    182a:	58 f0       	brcs	.+22     	; 0x1842 <_Z15processCommandsP12s_motor_ctrl+0x160>
    182c:	ca 01       	movw	r24, r20
			#ifdef _DEBUG
				Serial.println("Velocidade de cruzeiro sem cortes");
    182e:	86 1b       	sub	r24, r22
    1830:	97 0b       	sbc	r25, r23
    1832:	9d 87       	std	Y+13, r25	; 0x0d
    1834:	8c 87       	std	Y+12, r24	; 0x0c
			#endif // _DEBUG
		}
		else{			//if we do not have enough steps to speed up to programmed speed, then we must reduce it
			#ifdef _DEBUG
				Serial.println("Velocidade de cruzeiro com cortes");
    1836:	67 e8       	ldi	r22, 0x87	; 135
    1838:	72 e0       	ldi	r23, 0x02	; 2
    183a:	86 e2       	ldi	r24, 0x26	; 38
    183c:	95 e0       	ldi	r25, 0x05	; 5
    183e:	02 dc       	rcall	.-2044   	; 0x1044 <_ZN5Print7printlnEPKc>
    1840:	1b c0       	rjmp	.+54     	; 0x1878 <_Z15processCommandsP12s_motor_ctrl+0x196>
			#endif // _DEBUG
			s->n_to_cruse_speed = RATIO_ACC_BREAKING*s->prog_steps;
    1842:	69 ea       	ldi	r22, 0xA9	; 169
    1844:	72 e0       	ldi	r23, 0x02	; 2
    1846:	86 e2       	ldi	r24, 0x26	; 38
    1848:	95 e0       	ldi	r25, 0x05	; 5
    184a:	fc db       	rcall	.-2056   	; 0x1044 <_ZN5Print7printlnEPKc>
    184c:	0e 81       	ldd	r16, Y+6	; 0x06
    184e:	1f 81       	ldd	r17, Y+7	; 0x07
    1850:	b8 01       	movw	r22, r16
    1852:	80 e0       	ldi	r24, 0x00	; 0
    1854:	90 e0       	ldi	r25, 0x00	; 0
    1856:	2e d4       	rcall	.+2140   	; 0x20b4 <__floatunsisf>
    1858:	20 e0       	ldi	r18, 0x00	; 0
    185a:	30 e0       	ldi	r19, 0x00	; 0
    185c:	40 e0       	ldi	r20, 0x00	; 0
    185e:	5f e3       	ldi	r21, 0x3F	; 63
			s->steps_breaking = s->prog_steps-s->n_to_cruse_speed;
    1860:	8e d4       	rcall	.+2332   	; 0x217e <__mulsf3>
    1862:	24 d9       	rcall	.-3512   	; 0xaac <__fixunssfsi>
    1864:	7b 87       	std	Y+11, r23	; 0x0b
    1866:	6a 87       	std	Y+10, r22	; 0x0a
			s->prog_speed = sqrt(INITIAL_SPEED_2 + 2*ACC_MODULE*s->n_to_cruse_speed*D_THETA)*(-1);	
    1868:	06 1b       	sub	r16, r22
    186a:	17 0b       	sbc	r17, r23
    186c:	1f 87       	std	Y+15, r17	; 0x0f
    186e:	0e 87       	std	Y+14, r16	; 0x0e
		}
	}
	#ifdef _DEBUG
		Serial.println("Numero de steps para velocidade de cruzeiro:");
    1870:	86 ef       	ldi	r24, 0xF6	; 246
    1872:	9f ef       	ldi	r25, 0xFF	; 255
    1874:	99 87       	std	Y+9, r25	; 0x09
    1876:	88 87       	std	Y+8, r24	; 0x08
    1878:	65 ed       	ldi	r22, 0xD5	; 213
    187a:	72 e0       	ldi	r23, 0x02	; 2
		Serial.println(s->n_to_cruse_speed);
    187c:	86 e2       	ldi	r24, 0x26	; 38
    187e:	95 e0       	ldi	r25, 0x05	; 5
    1880:	e1 db       	rcall	.-2110   	; 0x1044 <_ZN5Print7printlnEPKc>
    1882:	6a 85       	ldd	r22, Y+10	; 0x0a
    1884:	7b 85       	ldd	r23, Y+11	; 0x0b
    1886:	4a e0       	ldi	r20, 0x0A	; 10
    1888:	50 e0       	ldi	r21, 0x00	; 0
    188a:	86 e2       	ldi	r24, 0x26	; 38
	#endif // _DEBUG
	
	return(1);
    188c:	95 e0       	ldi	r25, 0x05	; 5
    188e:	43 dc       	rcall	.-1914   	; 0x1116 <_ZN5Print7printlnEji>
    1890:	81 e0       	ldi	r24, 0x01	; 1
    1892:	df 91       	pop	r29
    1894:	cf 91       	pop	r28
    1896:	1f 91       	pop	r17
    1898:	0f 91       	pop	r16
    189a:	ff 90       	pop	r15
    189c:	ef 90       	pop	r14
    189e:	df 90       	pop	r13
    18a0:	cf 90       	pop	r12
    18a2:	08 95       	ret

000018a4 <_Z17treatSerialIncomev>:

void treatSerialIncome(void){
	static uint16_t c_rec = 0;
	static uint16_t p_vector = 0;
	static uint8_t  c_end_msg = 0;
	uint8_t data = Serial.read();
    18a4:	86 e2       	ldi	r24, 0x26	; 38
    18a6:	95 e0       	ldi	r25, 0x05	; 5
    18a8:	98 d9       	rcall	.-3280   	; 0xbda <_ZN14HardwareSerial4readEv>
	if ((gfs.state == IDLE)||(gfs.state == RECEIVING)){
    18aa:	90 91 1e 05 	lds	r25, 0x051E	; 0x80051e <gfs>
    18ae:	9d 7f       	andi	r25, 0xFD	; 253
    18b0:	09 f0       	breq	.+2      	; 0x18b4 <_Z17treatSerialIncomev+0x10>
    18b2:	84 c0       	rjmp	.+264    	; 0x19bc <_Z17treatSerialIncomev+0x118>
		if(c_rec == 0){     //waiting for first header
    18b4:	20 91 cf 05 	lds	r18, 0x05CF	; 0x8005cf <_ZZ17treatSerialIncomevE5c_rec>
    18b8:	30 91 d0 05 	lds	r19, 0x05D0	; 0x8005d0 <_ZZ17treatSerialIncomevE5c_rec+0x1>
    18bc:	21 15       	cp	r18, r1
    18be:	31 05       	cpc	r19, r1
    18c0:	49 f4       	brne	.+18     	; 0x18d4 <_Z17treatSerialIncomev+0x30>
			if (data == UART_HEADER_1){   c_rec = 1;  }   //if it is the correct first byte
    18c2:	83 35       	cpi	r24, 0x53	; 83
    18c4:	a9 f5       	brne	.+106    	; 0x1930 <_Z17treatSerialIncomev+0x8c>
    18c6:	81 e0       	ldi	r24, 0x01	; 1
    18c8:	90 e0       	ldi	r25, 0x00	; 0
    18ca:	90 93 d0 05 	sts	0x05D0, r25	; 0x8005d0 <_ZZ17treatSerialIncomevE5c_rec+0x1>
    18ce:	80 93 cf 05 	sts	0x05CF, r24	; 0x8005cf <_ZZ17treatSerialIncomevE5c_rec>
    18d2:	08 95       	ret
			else{             Serial.println("Header errado");  }
		}                   //end of waiting for first header
		else if(c_rec == 1){          //waiting for second header
    18d4:	21 30       	cpi	r18, 0x01	; 1
    18d6:	31 05       	cpc	r19, r1
    18d8:	71 f5       	brne	.+92     	; 0x1936 <_Z17treatSerialIncomev+0x92>
			if (data == UART_HEADER_COM){   //if it is the correct second byte
    18da:	83 36       	cpi	r24, 0x63	; 99
    18dc:	39 f4       	brne	.+14     	; 0x18ec <_Z17treatSerialIncomev+0x48>
				c_rec = 2;
    18de:	82 e0       	ldi	r24, 0x02	; 2
    18e0:	90 e0       	ldi	r25, 0x00	; 0
    18e2:	90 93 d0 05 	sts	0x05D0, r25	; 0x8005d0 <_ZZ17treatSerialIncomevE5c_rec+0x1>
    18e6:	80 93 cf 05 	sts	0x05CF, r24	; 0x8005cf <_ZZ17treatSerialIncomevE5c_rec>
    18ea:	11 c0       	rjmp	.+34     	; 0x190e <_Z17treatSerialIncomev+0x6a>
				gfs.state = RECEIVING;
			}
			else if(data == UART_HEADER_START){
				c_rec = 0;
    18ec:	10 92 d0 05 	sts	0x05D0, r1	; 0x8005d0 <_ZZ17treatSerialIncomevE5c_rec+0x1>
    18f0:	10 92 cf 05 	sts	0x05CF, r1	; 0x8005cf <_ZZ17treatSerialIncomevE5c_rec>
		else if(c_rec == 1){          //waiting for second header
			if (data == UART_HEADER_COM){   //if it is the correct second byte
				c_rec = 2;
				gfs.state = RECEIVING;
			}
			else if(data == UART_HEADER_START){
    18f4:	84 37       	cpi	r24, 0x74	; 116
    18f6:	89 f4       	brne	.+34     	; 0x191a <_Z17treatSerialIncomev+0x76>
				c_rec = 0;
				if(gfs.rdy_to_rotate == 1){		//first init of a command set, the next start will be given automatically in the main
    18f8:	80 91 21 05 	lds	r24, 0x0521	; 0x800521 <gfs+0x3>
					enableTimerMbase();
					enableTimerMtop();
    18fc:	88 23       	and	r24, r24
    18fe:	51 f0       	breq	.+20     	; 0x1914 <_Z17treatSerialIncomev+0x70>
					enableTimerAcc();
    1900:	b7 d0       	rcall	.+366    	; 0x1a70 <_Z16enableTimerMbasev>
    1902:	24 d1       	rcall	.+584    	; 0x1b4c <_Z15enableTimerMtopv>
					SET_MOVING_LED_PIN;
    1904:	4d d1       	rcall	.+666    	; 0x1ba0 <_Z14enableTimerAccv>
					gfs.rdy_to_rotate = 0;
    1906:	11 9a       	sbi	0x02, 1	; 2
    1908:	10 92 21 05 	sts	0x0521, r1	; 0x800521 <gfs+0x3>
					gfs.state = ROTATING;
    190c:	81 e0       	ldi	r24, 0x01	; 1
    190e:	80 93 1e 05 	sts	0x051E, r24	; 0x80051e <gfs>
				}		
				else{                         
					Serial.println("Comandos nao enviados");
    1912:	08 95       	ret
    1914:	60 e1       	ldi	r22, 0x10	; 16
    1916:	73 e0       	ldi	r23, 0x03	; 3
				}
			}
			else{
				c_rec = 0;
				p_vector = 0;
    1918:	56 c0       	rjmp	.+172    	; 0x19c6 <_Z17treatSerialIncomev+0x122>
    191a:	10 92 ce 05 	sts	0x05CE, r1	; 0x8005ce <_ZZ17treatSerialIncomevE8p_vector+0x1>
    191e:	10 92 cd 05 	sts	0x05CD, r1	; 0x8005cd <_ZZ17treatSerialIncomevE8p_vector>
				c_end_msg = 0;
				gfs.state = IDLE;
    1922:	10 92 cc 05 	sts	0x05CC, r1	; 0x8005cc <_ZZ17treatSerialIncomevE9c_end_msg>
				Serial.flush();
    1926:	10 92 1e 05 	sts	0x051E, r1	; 0x80051e <gfs>
    192a:	86 e2       	ldi	r24, 0x26	; 38
				Serial.println("Header errado");    
    192c:	95 e0       	ldi	r25, 0x05	; 5
    192e:	1b da       	rcall	.-3018   	; 0xd66 <_ZN14HardwareSerial5flushEv>
    1930:	62 e0       	ldi	r22, 0x02	; 2
			}
		}                     //end of waiting for second header
		else{                 //dealing with the rest of the messages
			gv_ctrl_com[p_vector] = data;               //saving into the buffer
    1932:	73 e0       	ldi	r23, 0x03	; 3
    1934:	48 c0       	rjmp	.+144    	; 0x19c6 <_Z17treatSerialIncomev+0x122>
    1936:	20 91 cd 05 	lds	r18, 0x05CD	; 0x8005cd <_ZZ17treatSerialIncomevE8p_vector>
    193a:	30 91 ce 05 	lds	r19, 0x05CE	; 0x8005ce <_ZZ17treatSerialIncomevE8p_vector+0x1>
    193e:	f9 01       	movw	r30, r18
    1940:	ee 59       	subi	r30, 0x9E	; 158
			if(((p_vector % 8) == 1)&&(data == END_MSG[1])){  //if the velocity starts with an 0x80, than we must end the command section
    1942:	fc 4f       	sbci	r31, 0xFC	; 252
    1944:	80 83       	st	Z, r24
    1946:	a9 01       	movw	r20, r18
    1948:	47 70       	andi	r20, 0x07	; 7
    194a:	55 27       	eor	r21, r21
    194c:	41 30       	cpi	r20, 0x01	; 1
    194e:	51 05       	cpc	r21, r1
    1950:	31 f4       	brne	.+12     	; 0x195e <_Z17treatSerialIncomev+0xba>
				c_end_msg = 2;									//TODO:: MELHORAR ESSA DETEC«√O DE FIM DE MSG
    1952:	80 38       	cpi	r24, 0x80	; 128
    1954:	21 f4       	brne	.+8      	; 0x195e <_Z17treatSerialIncomev+0xba>
    1956:	82 e0       	ldi	r24, 0x02	; 2
    1958:	80 93 cc 05 	sts	0x05CC, r24	; 0x8005cc <_ZZ17treatSerialIncomevE9c_end_msg>
			}
			else if(c_end_msg != 0){
    195c:	1d c0       	rjmp	.+58     	; 0x1998 <_Z17treatSerialIncomev+0xf4>
    195e:	80 91 cc 05 	lds	r24, 0x05CC	; 0x8005cc <_ZZ17treatSerialIncomevE9c_end_msg>
				c_end_msg++;
    1962:	88 23       	and	r24, r24
    1964:	c9 f0       	breq	.+50     	; 0x1998 <_Z17treatSerialIncomev+0xf4>
    1966:	8f 5f       	subi	r24, 0xFF	; 255
				if (c_end_msg == 8){
    1968:	80 93 cc 05 	sts	0x05CC, r24	; 0x8005cc <_ZZ17treatSerialIncomevE9c_end_msg>
					p_vector = 0;
    196c:	88 30       	cpi	r24, 0x08	; 8
    196e:	a1 f4       	brne	.+40     	; 0x1998 <_Z17treatSerialIncomev+0xf4>
    1970:	10 92 ce 05 	sts	0x05CE, r1	; 0x8005ce <_ZZ17treatSerialIncomevE8p_vector+0x1>
					c_end_msg = 0;
    1974:	10 92 cd 05 	sts	0x05CD, r1	; 0x8005cd <_ZZ17treatSerialIncomevE8p_vector>
					c_rec = 0;
    1978:	10 92 cc 05 	sts	0x05CC, r1	; 0x8005cc <_ZZ17treatSerialIncomevE9c_end_msg>
    197c:	10 92 d0 05 	sts	0x05D0, r1	; 0x8005d0 <_ZZ17treatSerialIncomevE5c_rec+0x1>
					gfs.state = IDLE;
    1980:	10 92 cf 05 	sts	0x05CF, r1	; 0x8005cf <_ZZ17treatSerialIncomevE5c_rec>
					gs_base_ctrl.f_rdy_4_command = 1;	//the commands will be evaluated at main loop
    1984:	10 92 1e 05 	sts	0x051E, r1	; 0x80051e <gfs>
    1988:	81 e0       	ldi	r24, 0x01	; 1
					gs_top_ctrl.f_rdy_4_command = 1;
    198a:	80 93 f2 04 	sts	0x04F2, r24	; 0x8004f2 <gs_base_ctrl>
					#ifdef _DEBUG
						Serial.println("fim da msg identificado");
    198e:	80 93 08 05 	sts	0x0508, r24	; 0x800508 <gs_top_ctrl>
    1992:	66 e2       	ldi	r22, 0x26	; 38
					#endif // _DEBUG
					return;
				}
			}
			p_vector++;
    1994:	73 e0       	ldi	r23, 0x03	; 3
    1996:	17 c0       	rjmp	.+46     	; 0x19c6 <_Z17treatSerialIncomev+0x122>
			if(p_vector >= REC_VECTOR_SIZE) p_vector = REC_VECTOR_SIZE - 1;
    1998:	2f 5f       	subi	r18, 0xFF	; 255
    199a:	3f 4f       	sbci	r19, 0xFF	; 255
    199c:	20 39       	cpi	r18, 0x90	; 144
    199e:	81 e0       	ldi	r24, 0x01	; 1
						Serial.println("fim da msg identificado");
					#endif // _DEBUG
					return;
				}
			}
			p_vector++;
    19a0:	38 07       	cpc	r19, r24
    19a2:	28 f4       	brcc	.+10     	; 0x19ae <_Z17treatSerialIncomev+0x10a>
    19a4:	30 93 ce 05 	sts	0x05CE, r19	; 0x8005ce <_ZZ17treatSerialIncomevE8p_vector+0x1>
    19a8:	20 93 cd 05 	sts	0x05CD, r18	; 0x8005cd <_ZZ17treatSerialIncomevE8p_vector>
			if(p_vector >= REC_VECTOR_SIZE) p_vector = REC_VECTOR_SIZE - 1;
    19ac:	08 95       	ret
    19ae:	8f e8       	ldi	r24, 0x8F	; 143
    19b0:	91 e0       	ldi	r25, 0x01	; 1
    19b2:	90 93 ce 05 	sts	0x05CE, r25	; 0x8005ce <_ZZ17treatSerialIncomevE8p_vector+0x1>
		}           //end of dealing with the rest of the messages
	}             //if ((gfs.state == IDLE)||(gfs.state == RECEIVING)){
	else{           //if the system is not able to receive any data, flush the serial
		Serial.flush();
    19b6:	80 93 cd 05 	sts	0x05CD, r24	; 0x8005cd <_ZZ17treatSerialIncomevE8p_vector>
    19ba:	08 95       	ret
		#ifdef _DEBUG
			Serial.println("Msg desconsiderada, motor rodando");
    19bc:	86 e2       	ldi	r24, 0x26	; 38
    19be:	95 e0       	ldi	r25, 0x05	; 5
    19c0:	d2 d9       	rcall	.-3164   	; 0xd66 <_ZN14HardwareSerial5flushEv>
    19c2:	6e e3       	ldi	r22, 0x3E	; 62
    19c4:	73 e0       	ldi	r23, 0x03	; 3
    19c6:	86 e2       	ldi	r24, 0x26	; 38
    19c8:	95 e0       	ldi	r25, 0x05	; 5
    19ca:	3c cb       	rjmp	.-2440   	; 0x1044 <_ZN5Print7printlnEPKc>

000019cc <_Z16updateMbaseSpeedj>:
}

void updateMbaseSpeed(uint16_t speed){
	char old_SREG;
	speed = max(0,speed);
	speed = min(721,speed);
    19cc:	82 3d       	cpi	r24, 0xD2	; 210
    19ce:	22 e0       	ldi	r18, 0x02	; 2
    19d0:	92 07       	cpc	r25, r18
    19d2:	10 f0       	brcs	.+4      	; 0x19d8 <_Z16updateMbaseSpeedj+0xc>
    19d4:	81 ed       	ldi	r24, 0xD1	; 209
    19d6:	92 e0       	ldi	r25, 0x02	; 2
	#ifdef _DEBUG_COM_WHILE_SPEED_CTRL
		Serial.write(hi8(pgm_read_word_near(&timerPeriod[speed])));
		Serial.write(lo8(pgm_read_word_near(&timerPeriod[speed])));
	#endif // _DEBUG
	
	if(speed < INITIAL_SPEED){
    19d8:	8a 30       	cpi	r24, 0x0A	; 10
    19da:	91 05       	cpc	r25, r1
    19dc:	48 f4       	brcc	.+18     	; 0x19f0 <_Z16updateMbaseSpeedj+0x24>
		TCCR1B &= ~(1<<(CS10) | 1<<(CS11) | 1<<(CS12));
    19de:	80 91 81 00 	lds	r24, 0x0081	; 0x800081 <__TEXT_REGION_LENGTH__+0x700081>
    19e2:	88 7f       	andi	r24, 0xF8	; 248
    19e4:	80 93 81 00 	sts	0x0081, r24	; 0x800081 <__TEXT_REGION_LENGTH__+0x700081>
		//old_SREG = SREG;
		cli();											// Disable interrupts for 16 bit register access
    19e8:	f8 94       	cli
		OCR1A = pgm_read_word_near(&timerPeriod[0]);
    19ea:	ee e0       	ldi	r30, 0x0E	; 14
    19ec:	f2 e0       	ldi	r31, 0x02	; 2
    19ee:	0d c0       	rjmp	.+26     	; 0x1a0a <_Z16updateMbaseSpeedj+0x3e>
    19f0:	fc 01       	movw	r30, r24
    19f2:	ee 0f       	add	r30, r30
    19f4:	ff 1f       	adc	r31, r31
		sei();
		//SREG = old_SREG;
		TCCR1B |= 1<<(CS11);
	}
	else if (speed < 15){
    19f6:	0f 97       	sbiw	r24, 0x0f	; 15
    19f8:	98 f4       	brcc	.+38     	; 0x1a20 <_Z16updateMbaseSpeedj+0x54>
		TCCR1B &= ~(1<<(CS10) | 1<<(CS11) | 1<<(CS12));
    19fa:	80 91 81 00 	lds	r24, 0x0081	; 0x800081 <__TEXT_REGION_LENGTH__+0x700081>
    19fe:	88 7f       	andi	r24, 0xF8	; 248
    1a00:	80 93 81 00 	sts	0x0081, r24	; 0x800081 <__TEXT_REGION_LENGTH__+0x700081>
		//old_SREG = SREG;
		cli();											// Disable interrupts for 16 bit register access
    1a04:	f8 94       	cli
		OCR1A = pgm_read_word_near(&timerPeriod[speed]);
    1a06:	e2 5f       	subi	r30, 0xF2	; 242
    1a08:	fd 4f       	sbci	r31, 0xFD	; 253
    1a0a:	85 91       	lpm	r24, Z+
    1a0c:	94 91       	lpm	r25, Z
    1a0e:	90 93 89 00 	sts	0x0089, r25	; 0x800089 <__TEXT_REGION_LENGTH__+0x700089>
    1a12:	80 93 88 00 	sts	0x0088, r24	; 0x800088 <__TEXT_REGION_LENGTH__+0x700088>
		sei();
    1a16:	78 94       	sei
		//SREG = old_SREG;
		TCCR1B |= 1<<(CS11);							// prescale by /8
    1a18:	80 91 81 00 	lds	r24, 0x0081	; 0x800081 <__TEXT_REGION_LENGTH__+0x700081>
    1a1c:	82 60       	ori	r24, 0x02	; 2
    1a1e:	12 c0       	rjmp	.+36     	; 0x1a44 <_Z16updateMbaseSpeedj+0x78>
	}
	else{
		TCCR1B &= ~(1<<(CS10) | 1<<(CS11) | 1<<(CS12));
    1a20:	80 91 81 00 	lds	r24, 0x0081	; 0x800081 <__TEXT_REGION_LENGTH__+0x700081>
    1a24:	88 7f       	andi	r24, 0xF8	; 248
    1a26:	80 93 81 00 	sts	0x0081, r24	; 0x800081 <__TEXT_REGION_LENGTH__+0x700081>
		//old_SREG = SREG;
		cli();											// Disable interrupts for 16 bit register access
    1a2a:	f8 94       	cli
		OCR1A = pgm_read_word_near(&timerPeriod[speed]);
    1a2c:	e2 5f       	subi	r30, 0xF2	; 242
    1a2e:	fd 4f       	sbci	r31, 0xFD	; 253
    1a30:	85 91       	lpm	r24, Z+
    1a32:	94 91       	lpm	r25, Z
    1a34:	90 93 89 00 	sts	0x0089, r25	; 0x800089 <__TEXT_REGION_LENGTH__+0x700089>
    1a38:	80 93 88 00 	sts	0x0088, r24	; 0x800088 <__TEXT_REGION_LENGTH__+0x700088>
		sei();
    1a3c:	78 94       	sei
		//SREG = old_SREG;
		TCCR1B |= 1<<(CS10);							// no prescale, full xtal
    1a3e:	80 91 81 00 	lds	r24, 0x0081	; 0x800081 <__TEXT_REGION_LENGTH__+0x700081>
    1a42:	81 60       	ori	r24, 0x01	; 1
    1a44:	80 93 81 00 	sts	0x0081, r24	; 0x800081 <__TEXT_REGION_LENGTH__+0x700081>
    1a48:	08 95       	ret

00001a4a <_Z14initTimerMbasev>:
	1387, 1385, 1382, 1380, 1378, 1376, 1374, 1372, 1370, 1368, 1366, 1364, 1362, 1360, 1357, 1355, 1353, 1351, 1349, 1347, 1345, 1343, 1341, 1339, 1337, 1335, 1333, 1331, 1329, 1327, 1325,
	1324, 1322, 1320, 1318, 1316, 1314, 1312, 1310, 1308, 1306, 1304, 1302, 1301, 1299, 1297, 1295, 1293, 1291, 1289, 1288, 1286, 1284, 1282, 1280, 1278, 1277, 1275, 1273, 1271, 1269, 1268,
1266, 1264, 1262, 1261, 1259, 1257, 1255, 1253, 1252, 1250};

void initTimerMbase(void){
	TCCR1A = 0;
    1a4a:	10 92 80 00 	sts	0x0080, r1	; 0x800080 <__TEXT_REGION_LENGTH__+0x700080>
	TCCR1B = 0;
    1a4e:	10 92 81 00 	sts	0x0081, r1	; 0x800081 <__TEXT_REGION_LENGTH__+0x700081>
	gs_base_ctrl.speed = INITIAL_SPEED;
    1a52:	80 e0       	ldi	r24, 0x00	; 0
    1a54:	90 e0       	ldi	r25, 0x00	; 0
    1a56:	a0 e2       	ldi	r26, 0x20	; 32
    1a58:	b1 e4       	ldi	r27, 0x41	; 65
    1a5a:	80 93 04 05 	sts	0x0504, r24	; 0x800504 <gs_base_ctrl+0x12>
    1a5e:	90 93 05 05 	sts	0x0505, r25	; 0x800505 <gs_base_ctrl+0x13>
    1a62:	a0 93 06 05 	sts	0x0506, r26	; 0x800506 <gs_base_ctrl+0x14>
    1a66:	b0 93 07 05 	sts	0x0507, r27	; 0x800507 <gs_base_ctrl+0x15>
	updateMbaseSpeed(INITIAL_SPEED);
    1a6a:	8a e0       	ldi	r24, 0x0A	; 10
    1a6c:	90 e0       	ldi	r25, 0x00	; 0
    1a6e:	ae cf       	rjmp	.-164    	; 0x19cc <_Z16updateMbaseSpeedj>

00001a70 <_Z16enableTimerMbasev>:
		TCCR1B |= 1<<(CS10);							// no prescale, full xtal
	}
}

void enableTimerMbase(void){
	TCNT1 = 0;
    1a70:	10 92 85 00 	sts	0x0085, r1	; 0x800085 <__TEXT_REGION_LENGTH__+0x700085>
    1a74:	10 92 84 00 	sts	0x0084, r1	; 0x800084 <__TEXT_REGION_LENGTH__+0x700084>
	TCCR1A |= 1<<(WGM10);
    1a78:	e0 e8       	ldi	r30, 0x80	; 128
    1a7a:	f0 e0       	ldi	r31, 0x00	; 0
    1a7c:	80 81       	ld	r24, Z
    1a7e:	81 60       	ori	r24, 0x01	; 1
    1a80:	80 83       	st	Z, r24
	TCCR1B |= 1<<(WGM13);
    1a82:	e1 e8       	ldi	r30, 0x81	; 129
    1a84:	f0 e0       	ldi	r31, 0x00	; 0
    1a86:	80 81       	ld	r24, Z
    1a88:	80 61       	ori	r24, 0x10	; 16
    1a8a:	80 83       	st	Z, r24
	TIMSK1 = 1<<(TOIE1);                                     // sets the timer overflow interrupt enable bit
    1a8c:	81 e0       	ldi	r24, 0x01	; 1
    1a8e:	80 93 6f 00 	sts	0x006F, r24	; 0x80006f <__TEXT_REGION_LENGTH__+0x70006f>
    1a92:	08 95       	ret

00001a94 <_Z17disableTimerMbasev>:
}

void disableTimerMbase(void){
	TCNT1 = 0;
    1a94:	10 92 85 00 	sts	0x0085, r1	; 0x800085 <__TEXT_REGION_LENGTH__+0x700085>
    1a98:	10 92 84 00 	sts	0x0084, r1	; 0x800084 <__TEXT_REGION_LENGTH__+0x700084>
	TIMSK1 &= ~(1<<(TOIE1));
    1a9c:	ef e6       	ldi	r30, 0x6F	; 111
    1a9e:	f0 e0       	ldi	r31, 0x00	; 0
    1aa0:	80 81       	ld	r24, Z
    1aa2:	8e 7f       	andi	r24, 0xFE	; 254
    1aa4:	80 83       	st	Z, r24
    1aa6:	08 95       	ret

00001aa8 <_Z15updateMtopSpeedj>:
}

void updateMtopSpeed(uint16_t speed){
	char old_SREG;
	speed = max(0,speed);
	speed = min(721,speed);
    1aa8:	82 3d       	cpi	r24, 0xD2	; 210
    1aaa:	22 e0       	ldi	r18, 0x02	; 2
    1aac:	92 07       	cpc	r25, r18
    1aae:	10 f0       	brcs	.+4      	; 0x1ab4 <_Z15updateMtopSpeedj+0xc>
    1ab0:	81 ed       	ldi	r24, 0xD1	; 209
    1ab2:	92 e0       	ldi	r25, 0x02	; 2
	
	if(speed < INITIAL_SPEED){
    1ab4:	8a 30       	cpi	r24, 0x0A	; 10
    1ab6:	91 05       	cpc	r25, r1
    1ab8:	48 f4       	brcc	.+18     	; 0x1acc <_Z15updateMtopSpeedj+0x24>
		TCCR3B &= ~(1<<(CS10) | 1<<(CS11) | 1<<(CS12));
    1aba:	80 91 91 00 	lds	r24, 0x0091	; 0x800091 <__TEXT_REGION_LENGTH__+0x700091>
    1abe:	88 7f       	andi	r24, 0xF8	; 248
    1ac0:	80 93 91 00 	sts	0x0091, r24	; 0x800091 <__TEXT_REGION_LENGTH__+0x700091>
		//old_SREG = SREG;
		cli();											// Disable interrupts for 16 bit register access
    1ac4:	f8 94       	cli
		OCR3A = pgm_read_word_near(&timerPeriod[0]);
    1ac6:	ee e0       	ldi	r30, 0x0E	; 14
    1ac8:	f2 e0       	ldi	r31, 0x02	; 2
    1aca:	0d c0       	rjmp	.+26     	; 0x1ae6 <_Z15updateMtopSpeedj+0x3e>
    1acc:	fc 01       	movw	r30, r24
    1ace:	ee 0f       	add	r30, r30
    1ad0:	ff 1f       	adc	r31, r31
		sei();
		//SREG = old_SREG;
		TCCR3B |= 1<<(CS11);							// prescale by /8
	}	
	else if (speed < 15){
    1ad2:	0f 97       	sbiw	r24, 0x0f	; 15
    1ad4:	98 f4       	brcc	.+38     	; 0x1afc <_Z15updateMtopSpeedj+0x54>
		TCCR3B &= ~(1<<(CS10) | 1<<(CS11) | 1<<(CS12));
    1ad6:	80 91 91 00 	lds	r24, 0x0091	; 0x800091 <__TEXT_REGION_LENGTH__+0x700091>
    1ada:	88 7f       	andi	r24, 0xF8	; 248
    1adc:	80 93 91 00 	sts	0x0091, r24	; 0x800091 <__TEXT_REGION_LENGTH__+0x700091>
		//old_SREG = SREG;
		cli();											// Disable interrupts for 16 bit register access
    1ae0:	f8 94       	cli
		OCR3A = pgm_read_word_near(&timerPeriod[speed]);
    1ae2:	e2 5f       	subi	r30, 0xF2	; 242
    1ae4:	fd 4f       	sbci	r31, 0xFD	; 253
    1ae6:	85 91       	lpm	r24, Z+
    1ae8:	94 91       	lpm	r25, Z
    1aea:	90 93 99 00 	sts	0x0099, r25	; 0x800099 <__TEXT_REGION_LENGTH__+0x700099>
    1aee:	80 93 98 00 	sts	0x0098, r24	; 0x800098 <__TEXT_REGION_LENGTH__+0x700098>
		sei();
    1af2:	78 94       	sei
		//SREG = old_SREG;
		TCCR3B |= 1<<(CS11);							// prescale by /8
    1af4:	80 91 91 00 	lds	r24, 0x0091	; 0x800091 <__TEXT_REGION_LENGTH__+0x700091>
    1af8:	82 60       	ori	r24, 0x02	; 2
    1afa:	12 c0       	rjmp	.+36     	; 0x1b20 <_Z15updateMtopSpeedj+0x78>
	}
	else{
		TCCR3B &= ~(1<<(CS10) | 1<<(CS11) | 1<<(CS12));
    1afc:	80 91 91 00 	lds	r24, 0x0091	; 0x800091 <__TEXT_REGION_LENGTH__+0x700091>
    1b00:	88 7f       	andi	r24, 0xF8	; 248
    1b02:	80 93 91 00 	sts	0x0091, r24	; 0x800091 <__TEXT_REGION_LENGTH__+0x700091>
		//old_SREG = SREG;
		cli();											// Disable interrupts for 16 bit register access
    1b06:	f8 94       	cli
		OCR3A = pgm_read_word_near(&timerPeriod[speed]);
    1b08:	e2 5f       	subi	r30, 0xF2	; 242
    1b0a:	fd 4f       	sbci	r31, 0xFD	; 253
    1b0c:	85 91       	lpm	r24, Z+
    1b0e:	94 91       	lpm	r25, Z
    1b10:	90 93 99 00 	sts	0x0099, r25	; 0x800099 <__TEXT_REGION_LENGTH__+0x700099>
    1b14:	80 93 98 00 	sts	0x0098, r24	; 0x800098 <__TEXT_REGION_LENGTH__+0x700098>
		sei();
    1b18:	78 94       	sei
		//SREG = old_SREG;
		TCCR3B |= 1<<(CS10);							// no prescale, full xtal
    1b1a:	80 91 91 00 	lds	r24, 0x0091	; 0x800091 <__TEXT_REGION_LENGTH__+0x700091>
    1b1e:	81 60       	ori	r24, 0x01	; 1
    1b20:	80 93 91 00 	sts	0x0091, r24	; 0x800091 <__TEXT_REGION_LENGTH__+0x700091>
    1b24:	08 95       	ret

00001b26 <_Z13initTimerMtopv>:
}



void initTimerMtop(void){
	TCCR3A = 0;
    1b26:	10 92 90 00 	sts	0x0090, r1	; 0x800090 <__TEXT_REGION_LENGTH__+0x700090>
	TCCR3B = 0;
    1b2a:	10 92 91 00 	sts	0x0091, r1	; 0x800091 <__TEXT_REGION_LENGTH__+0x700091>
	gs_top_ctrl.speed = INITIAL_SPEED;
    1b2e:	80 e0       	ldi	r24, 0x00	; 0
    1b30:	90 e0       	ldi	r25, 0x00	; 0
    1b32:	a0 e2       	ldi	r26, 0x20	; 32
    1b34:	b1 e4       	ldi	r27, 0x41	; 65
    1b36:	80 93 1a 05 	sts	0x051A, r24	; 0x80051a <gs_top_ctrl+0x12>
    1b3a:	90 93 1b 05 	sts	0x051B, r25	; 0x80051b <gs_top_ctrl+0x13>
    1b3e:	a0 93 1c 05 	sts	0x051C, r26	; 0x80051c <gs_top_ctrl+0x14>
    1b42:	b0 93 1d 05 	sts	0x051D, r27	; 0x80051d <gs_top_ctrl+0x15>
	updateMtopSpeed(INITIAL_SPEED);
    1b46:	8a e0       	ldi	r24, 0x0A	; 10
    1b48:	90 e0       	ldi	r25, 0x00	; 0
    1b4a:	ae cf       	rjmp	.-164    	; 0x1aa8 <_Z15updateMtopSpeedj>

00001b4c <_Z15enableTimerMtopv>:
		TCCR3B |= 1<<(CS10);							// no prescale, full xtal
	}
}

void enableTimerMtop(void){
	TCNT3 = 0;
    1b4c:	10 92 95 00 	sts	0x0095, r1	; 0x800095 <__TEXT_REGION_LENGTH__+0x700095>
    1b50:	10 92 94 00 	sts	0x0094, r1	; 0x800094 <__TEXT_REGION_LENGTH__+0x700094>
	TCCR3A |= 1<<(WGM30);
    1b54:	e0 e9       	ldi	r30, 0x90	; 144
    1b56:	f0 e0       	ldi	r31, 0x00	; 0
    1b58:	80 81       	ld	r24, Z
    1b5a:	81 60       	ori	r24, 0x01	; 1
    1b5c:	80 83       	st	Z, r24
	TCCR3B |= 1<<(WGM33);
    1b5e:	e1 e9       	ldi	r30, 0x91	; 145
    1b60:	f0 e0       	ldi	r31, 0x00	; 0
    1b62:	80 81       	ld	r24, Z
    1b64:	80 61       	ori	r24, 0x10	; 16
    1b66:	80 83       	st	Z, r24
	//TCCR3A |= 1<<(WGM30);
	TIMSK3 = 1<<(TOIE3);                                     // sets the timer overflow interrupt enable bit
    1b68:	81 e0       	ldi	r24, 0x01	; 1
    1b6a:	80 93 71 00 	sts	0x0071, r24	; 0x800071 <__TEXT_REGION_LENGTH__+0x700071>
    1b6e:	08 95       	ret

00001b70 <_Z16disableTimerMtopv>:
}

void disableTimerMtop(void){
	TCNT3 = 0;
    1b70:	10 92 95 00 	sts	0x0095, r1	; 0x800095 <__TEXT_REGION_LENGTH__+0x700095>
    1b74:	10 92 94 00 	sts	0x0094, r1	; 0x800094 <__TEXT_REGION_LENGTH__+0x700094>
	TIMSK3 &= ~(1<<(TOIE3));
    1b78:	e1 e7       	ldi	r30, 0x71	; 113
    1b7a:	f0 e0       	ldi	r31, 0x00	; 0
    1b7c:	80 81       	ld	r24, Z
    1b7e:	8e 7f       	andi	r24, 0xFE	; 254
    1b80:	80 83       	st	Z, r24
    1b82:	08 95       	ret

00001b84 <_Z12initTimerAccv>:
}

void initTimerAcc(void){
	TCCR4A = 0;
    1b84:	10 92 a0 00 	sts	0x00A0, r1	; 0x8000a0 <__TEXT_REGION_LENGTH__+0x7000a0>
	TCCR4B = 0;
    1b88:	e1 ea       	ldi	r30, 0xA1	; 161
    1b8a:	f0 e0       	ldi	r31, 0x00	; 0
    1b8c:	10 82       	st	Z, r1
	ICR4 = SPEED_UPDATE_TIMER_TOP;
    1b8e:	8f e6       	ldi	r24, 0x6F	; 111
    1b90:	9b e2       	ldi	r25, 0x2B	; 43
    1b92:	90 93 a7 00 	sts	0x00A7, r25	; 0x8000a7 <__TEXT_REGION_LENGTH__+0x7000a7>
    1b96:	80 93 a6 00 	sts	0x00A6, r24	; 0x8000a6 <__TEXT_REGION_LENGTH__+0x7000a6>
	TCCR4B = 1<<(CS10);
    1b9a:	81 e0       	ldi	r24, 0x01	; 1
    1b9c:	80 83       	st	Z, r24
    1b9e:	08 95       	ret

00001ba0 <_Z14enableTimerAccv>:
}

void enableTimerAcc(void){
	TCNT4 = 0;
    1ba0:	10 92 a5 00 	sts	0x00A5, r1	; 0x8000a5 <__TEXT_REGION_LENGTH__+0x7000a5>
    1ba4:	10 92 a4 00 	sts	0x00A4, r1	; 0x8000a4 <__TEXT_REGION_LENGTH__+0x7000a4>
	TCCR4B |= 1<<(WGM43);
    1ba8:	e1 ea       	ldi	r30, 0xA1	; 161
    1baa:	f0 e0       	ldi	r31, 0x00	; 0
    1bac:	80 81       	ld	r24, Z
    1bae:	80 61       	ori	r24, 0x10	; 16
    1bb0:	80 83       	st	Z, r24
	TIMSK4 = 1<<(TOIE4);                                     // sets the timer overflow interrupt enable bit
    1bb2:	81 e0       	ldi	r24, 0x01	; 1
    1bb4:	80 93 72 00 	sts	0x0072, r24	; 0x800072 <__TEXT_REGION_LENGTH__+0x700072>
    1bb8:	08 95       	ret

00001bba <_Z15disableTimerAccv>:
}

void disableTimerAcc(void){
	TCNT4 = 0;
    1bba:	10 92 a5 00 	sts	0x00A5, r1	; 0x8000a5 <__TEXT_REGION_LENGTH__+0x7000a5>
    1bbe:	10 92 a4 00 	sts	0x00A4, r1	; 0x8000a4 <__TEXT_REGION_LENGTH__+0x7000a4>
	TIMSK4 &= ~(1<<(TOIE4));
    1bc2:	e2 e7       	ldi	r30, 0x72	; 114
    1bc4:	f0 e0       	ldi	r31, 0x00	; 0
    1bc6:	80 81       	ld	r24, Z
    1bc8:	8e 7f       	andi	r24, 0xFE	; 254
    1bca:	80 83       	st	Z, r24
    1bcc:	08 95       	ret

00001bce <__vector_20>:
}



ISR(TIMER1_OVF_vect) {
    1bce:	1f 92       	push	r1
    1bd0:	0f 92       	push	r0
    1bd2:	0f b6       	in	r0, 0x3f	; 63
    1bd4:	0f 92       	push	r0
    1bd6:	11 24       	eor	r1, r1
    1bd8:	0b b6       	in	r0, 0x3b	; 59
    1bda:	0f 92       	push	r0
    1bdc:	2f 93       	push	r18
    1bde:	3f 93       	push	r19
    1be0:	4f 93       	push	r20
    1be2:	5f 93       	push	r21
    1be4:	6f 93       	push	r22
    1be6:	7f 93       	push	r23
    1be8:	8f 93       	push	r24
    1bea:	9f 93       	push	r25
    1bec:	af 93       	push	r26
    1bee:	bf 93       	push	r27
    1bf0:	ef 93       	push	r30
    1bf2:	ff 93       	push	r31
	//A step is only given in the rising edge
//	CLEAR_NATIVE_LED;
	gs_base_ctrl.c_steps_made++;
    1bf4:	80 91 02 05 	lds	r24, 0x0502	; 0x800502 <gs_base_ctrl+0x10>
    1bf8:	90 91 03 05 	lds	r25, 0x0503	; 0x800503 <gs_base_ctrl+0x11>
    1bfc:	01 96       	adiw	r24, 0x01	; 1
    1bfe:	90 93 03 05 	sts	0x0503, r25	; 0x800503 <gs_base_ctrl+0x11>
    1c02:	80 93 02 05 	sts	0x0502, r24	; 0x800502 <gs_base_ctrl+0x10>
	if (abs(gs_base_ctrl.prog_speed) >= INITIAL_SPEED){	// if the command is to really move the motor:
    1c06:	80 91 fa 04 	lds	r24, 0x04FA	; 0x8004fa <gs_base_ctrl+0x8>
    1c0a:	90 91 fb 04 	lds	r25, 0x04FB	; 0x8004fb <gs_base_ctrl+0x9>
    1c0e:	97 ff       	sbrs	r25, 7
    1c10:	03 c0       	rjmp	.+6      	; 0x1c18 <__vector_20+0x4a>
    1c12:	91 95       	neg	r25
    1c14:	81 95       	neg	r24
    1c16:	91 09       	sbc	r25, r1
    1c18:	0a 97       	sbiw	r24, 0x0a	; 10
		limitBaseSteps();		//check if we can make one more step. Set the flags if we cannot, if we can, rise the step pin
    1c1a:	0c f0       	brlt	.+2      	; 0x1c1e <__vector_20+0x50>
		
	}
	if(gs_base_ctrl.c_steps_made == gs_base_ctrl.prog_steps){
    1c1c:	fe dc       	rcall	.-1540   	; 0x161a <_Z14limitBaseStepsv>
    1c1e:	20 91 02 05 	lds	r18, 0x0502	; 0x800502 <gs_base_ctrl+0x10>
    1c22:	30 91 03 05 	lds	r19, 0x0503	; 0x800503 <gs_base_ctrl+0x11>
    1c26:	80 91 f8 04 	lds	r24, 0x04F8	; 0x8004f8 <gs_base_ctrl+0x6>
    1c2a:	90 91 f9 04 	lds	r25, 0x04F9	; 0x8004f9 <gs_base_ctrl+0x7>
    1c2e:	28 17       	cp	r18, r24
		disableTimerMbase();
    1c30:	39 07       	cpc	r19, r25
    1c32:	81 f4       	brne	.+32     	; 0x1c54 <__vector_20+0x86>
		gs_base_ctrl.c_steps_made = 0;
    1c34:	2f df       	rcall	.-418    	; 0x1a94 <_Z17disableTimerMbasev>
    1c36:	10 92 03 05 	sts	0x0503, r1	; 0x800503 <gs_base_ctrl+0x11>
    1c3a:	10 92 02 05 	sts	0x0502, r1	; 0x800502 <gs_base_ctrl+0x10>
		gs_base_ctrl.speed = 0;
    1c3e:	10 92 04 05 	sts	0x0504, r1	; 0x800504 <gs_base_ctrl+0x12>
    1c42:	10 92 05 05 	sts	0x0505, r1	; 0x800505 <gs_base_ctrl+0x13>
    1c46:	10 92 06 05 	sts	0x0506, r1	; 0x800506 <gs_base_ctrl+0x14>
    1c4a:	10 92 07 05 	sts	0x0507, r1	; 0x800507 <gs_base_ctrl+0x15>
		gs_base_ctrl.f_rdy_4_command = 1;		
    1c4e:	81 e0       	ldi	r24, 0x01	; 1
	}
	delayMicroseconds(2);	
    1c50:	80 93 f2 04 	sts	0x04F2, r24	; 0x8004f2 <gs_base_ctrl>
    1c54:	82 e0       	ldi	r24, 0x02	; 2
	CLEAR_MBASE_STEP_PIN;
    1c56:	90 e0       	ldi	r25, 0x00	; 0
}
    1c58:	13 db       	rcall	.-2522   	; 0x1280 <delayMicroseconds>
    1c5a:	12 98       	cbi	0x02, 2	; 2
    1c5c:	ff 91       	pop	r31
    1c5e:	ef 91       	pop	r30
    1c60:	bf 91       	pop	r27
    1c62:	af 91       	pop	r26
    1c64:	9f 91       	pop	r25
    1c66:	8f 91       	pop	r24
    1c68:	7f 91       	pop	r23
    1c6a:	6f 91       	pop	r22
    1c6c:	5f 91       	pop	r21
    1c6e:	4f 91       	pop	r20
    1c70:	3f 91       	pop	r19
    1c72:	2f 91       	pop	r18
    1c74:	0f 90       	pop	r0
    1c76:	0b be       	out	0x3b, r0	; 59
    1c78:	0f 90       	pop	r0
    1c7a:	0f be       	out	0x3f, r0	; 63
    1c7c:	0f 90       	pop	r0
    1c7e:	1f 90       	pop	r1
    1c80:	18 95       	reti

00001c82 <__vector_35>:

ISR(TIMER3_OVF_vect) {
    1c82:	1f 92       	push	r1
    1c84:	0f 92       	push	r0
    1c86:	0f b6       	in	r0, 0x3f	; 63
    1c88:	0f 92       	push	r0
    1c8a:	11 24       	eor	r1, r1
    1c8c:	0b b6       	in	r0, 0x3b	; 59
    1c8e:	0f 92       	push	r0
    1c90:	2f 93       	push	r18
    1c92:	3f 93       	push	r19
    1c94:	4f 93       	push	r20
    1c96:	5f 93       	push	r21
    1c98:	6f 93       	push	r22
    1c9a:	7f 93       	push	r23
    1c9c:	8f 93       	push	r24
    1c9e:	9f 93       	push	r25
    1ca0:	af 93       	push	r26
    1ca2:	bf 93       	push	r27
    1ca4:	ef 93       	push	r30
    1ca6:	ff 93       	push	r31
//	CLEAR_NATIVE_LED;
	gs_top_ctrl.c_steps_made++;
    1ca8:	80 91 18 05 	lds	r24, 0x0518	; 0x800518 <gs_top_ctrl+0x10>
    1cac:	90 91 19 05 	lds	r25, 0x0519	; 0x800519 <gs_top_ctrl+0x11>
    1cb0:	01 96       	adiw	r24, 0x01	; 1
    1cb2:	90 93 19 05 	sts	0x0519, r25	; 0x800519 <gs_top_ctrl+0x11>
    1cb6:	80 93 18 05 	sts	0x0518, r24	; 0x800518 <gs_top_ctrl+0x10>
	if (abs(gs_top_ctrl.prog_speed) >= INITIAL_SPEED){
    1cba:	80 91 10 05 	lds	r24, 0x0510	; 0x800510 <gs_top_ctrl+0x8>
    1cbe:	90 91 11 05 	lds	r25, 0x0511	; 0x800511 <gs_top_ctrl+0x9>
    1cc2:	97 ff       	sbrs	r25, 7
    1cc4:	03 c0       	rjmp	.+6      	; 0x1ccc <__vector_35+0x4a>
    1cc6:	91 95       	neg	r25
    1cc8:	81 95       	neg	r24
    1cca:	91 09       	sbc	r25, r1
    1ccc:	0a 97       	sbiw	r24, 0x0a	; 10
    1cce:	2c f0       	brlt	.+10     	; 0x1cda <__vector_35+0x58>
		SET_MTOP_STEP_PIN;
    1cd0:	80 91 02 01 	lds	r24, 0x0102	; 0x800102 <__TEXT_REGION_LENGTH__+0x700102>
    1cd4:	80 61       	ori	r24, 0x10	; 16
    1cd6:	80 93 02 01 	sts	0x0102, r24	; 0x800102 <__TEXT_REGION_LENGTH__+0x700102>
	}
	
	if(gs_top_ctrl.c_steps_made == gs_top_ctrl.prog_steps){
    1cda:	20 91 18 05 	lds	r18, 0x0518	; 0x800518 <gs_top_ctrl+0x10>
    1cde:	30 91 19 05 	lds	r19, 0x0519	; 0x800519 <gs_top_ctrl+0x11>
    1ce2:	80 91 0e 05 	lds	r24, 0x050E	; 0x80050e <gs_top_ctrl+0x6>
    1ce6:	90 91 0f 05 	lds	r25, 0x050F	; 0x80050f <gs_top_ctrl+0x7>
    1cea:	28 17       	cp	r18, r24
    1cec:	39 07       	cpc	r19, r25
		disableTimerMtop();
    1cee:	81 f4       	brne	.+32     	; 0x1d10 <__vector_35+0x8e>
		gs_top_ctrl.c_steps_made = 0;
    1cf0:	3f df       	rcall	.-386    	; 0x1b70 <_Z16disableTimerMtopv>
    1cf2:	10 92 19 05 	sts	0x0519, r1	; 0x800519 <gs_top_ctrl+0x11>
    1cf6:	10 92 18 05 	sts	0x0518, r1	; 0x800518 <gs_top_ctrl+0x10>
		gs_top_ctrl.speed = 0;
    1cfa:	10 92 1a 05 	sts	0x051A, r1	; 0x80051a <gs_top_ctrl+0x12>
    1cfe:	10 92 1b 05 	sts	0x051B, r1	; 0x80051b <gs_top_ctrl+0x13>
    1d02:	10 92 1c 05 	sts	0x051C, r1	; 0x80051c <gs_top_ctrl+0x14>
    1d06:	10 92 1d 05 	sts	0x051D, r1	; 0x80051d <gs_top_ctrl+0x15>
		gs_top_ctrl.f_rdy_4_command = 1;		
    1d0a:	81 e0       	ldi	r24, 0x01	; 1
    1d0c:	80 93 08 05 	sts	0x0508, r24	; 0x800508 <gs_top_ctrl>
	}		
	delayMicroseconds(2);	
    1d10:	82 e0       	ldi	r24, 0x02	; 2
    1d12:	90 e0       	ldi	r25, 0x00	; 0
	CLEAR_MTOP_STEP_PIN; 
    1d14:	b5 da       	rcall	.-2710   	; 0x1280 <delayMicroseconds>
    1d16:	80 91 02 01 	lds	r24, 0x0102	; 0x800102 <__TEXT_REGION_LENGTH__+0x700102>
    1d1a:	8f 7e       	andi	r24, 0xEF	; 239
    1d1c:	80 93 02 01 	sts	0x0102, r24	; 0x800102 <__TEXT_REGION_LENGTH__+0x700102>
}
    1d20:	ff 91       	pop	r31
    1d22:	ef 91       	pop	r30
    1d24:	bf 91       	pop	r27
    1d26:	af 91       	pop	r26
    1d28:	9f 91       	pop	r25
    1d2a:	8f 91       	pop	r24
    1d2c:	7f 91       	pop	r23
    1d2e:	6f 91       	pop	r22
    1d30:	5f 91       	pop	r21
    1d32:	4f 91       	pop	r20
    1d34:	3f 91       	pop	r19
    1d36:	2f 91       	pop	r18
    1d38:	0f 90       	pop	r0
    1d3a:	0b be       	out	0x3b, r0	; 59
    1d3c:	0f 90       	pop	r0
    1d3e:	0f be       	out	0x3f, r0	; 63
    1d40:	0f 90       	pop	r0
    1d42:	1f 90       	pop	r1
    1d44:	18 95       	reti

00001d46 <__vector_45>:

ISR(TIMER4_OVF_vect){
    1d46:	1f 92       	push	r1
    1d48:	0f 92       	push	r0
    1d4a:	0f b6       	in	r0, 0x3f	; 63
    1d4c:	0f 92       	push	r0
    1d4e:	11 24       	eor	r1, r1
    1d50:	0b b6       	in	r0, 0x3b	; 59
    1d52:	0f 92       	push	r0
    1d54:	cf 92       	push	r12
    1d56:	df 92       	push	r13
    1d58:	ef 92       	push	r14
    1d5a:	ff 92       	push	r15
    1d5c:	2f 93       	push	r18
    1d5e:	3f 93       	push	r19
    1d60:	4f 93       	push	r20
    1d62:	5f 93       	push	r21
    1d64:	6f 93       	push	r22
    1d66:	7f 93       	push	r23
    1d68:	8f 93       	push	r24
    1d6a:	9f 93       	push	r25
    1d6c:	af 93       	push	r26
    1d6e:	bf 93       	push	r27
    1d70:	ef 93       	push	r30
    1d72:	ff 93       	push	r31
	if (abs(gs_base_ctrl.prog_speed) >= INITIAL_SPEED){
    1d74:	80 91 fa 04 	lds	r24, 0x04FA	; 0x8004fa <gs_base_ctrl+0x8>
    1d78:	90 91 fb 04 	lds	r25, 0x04FB	; 0x8004fb <gs_base_ctrl+0x9>
    1d7c:	97 ff       	sbrs	r25, 7
    1d7e:	03 c0       	rjmp	.+6      	; 0x1d86 <__vector_45+0x40>
    1d80:	91 95       	neg	r25
    1d82:	81 95       	neg	r24
    1d84:	91 09       	sbc	r25, r1
    1d86:	0a 97       	sbiw	r24, 0x0a	; 10
    1d88:	0c f4       	brge	.+2      	; 0x1d8c <__vector_45+0x46>
    1d8a:	4a c0       	rjmp	.+148    	; 0x1e20 <__vector_45+0xda>
		if (gs_base_ctrl.c_steps_made <= gs_base_ctrl.n_to_cruse_speed){	//if we need to speed up
    1d8c:	80 91 02 05 	lds	r24, 0x0502	; 0x800502 <gs_base_ctrl+0x10>
    1d90:	90 91 03 05 	lds	r25, 0x0503	; 0x800503 <gs_base_ctrl+0x11>
    1d94:	20 91 fc 04 	lds	r18, 0x04FC	; 0x8004fc <gs_base_ctrl+0xa>
    1d98:	30 91 fd 04 	lds	r19, 0x04FD	; 0x8004fd <gs_base_ctrl+0xb>
    1d9c:	28 17       	cp	r18, r24
    1d9e:	39 07       	cpc	r19, r25
    1da0:	f8 f0       	brcs	.+62     	; 0x1de0 <__vector_45+0x9a>
			gs_base_ctrl.speed = max(INITIAL_SPEED,gs_base_ctrl.speed);
    1da2:	c0 90 04 05 	lds	r12, 0x0504	; 0x800504 <gs_base_ctrl+0x12>
    1da6:	d0 90 05 05 	lds	r13, 0x0505	; 0x800505 <gs_base_ctrl+0x13>
    1daa:	e0 90 06 05 	lds	r14, 0x0506	; 0x800506 <gs_base_ctrl+0x14>
    1dae:	f0 90 07 05 	lds	r15, 0x0507	; 0x800507 <gs_base_ctrl+0x15>
    1db2:	20 e0       	ldi	r18, 0x00	; 0
    1db4:	30 e0       	ldi	r19, 0x00	; 0
    1db6:	40 e2       	ldi	r20, 0x20	; 32
    1db8:	51 e4       	ldi	r21, 0x41	; 65
    1dba:	c7 01       	movw	r24, r14
    1dbc:	b6 01       	movw	r22, r12
    1dbe:	0a d1       	rcall	.+532    	; 0x1fd4 <__cmpsf2>
    1dc0:	87 ff       	sbrs	r24, 7
    1dc2:	06 c0       	rjmp	.+12     	; 0x1dd0 <__vector_45+0x8a>
    1dc4:	c1 2c       	mov	r12, r1
    1dc6:	d1 2c       	mov	r13, r1
    1dc8:	90 e2       	ldi	r25, 0x20	; 32
    1dca:	e9 2e       	mov	r14, r25
    1dcc:	91 e4       	ldi	r25, 0x41	; 65
    1dce:	f9 2e       	mov	r15, r25
			gs_base_ctrl.speed += ACC_SCALER;
    1dd0:	20 e0       	ldi	r18, 0x00	; 0
    1dd2:	30 e0       	ldi	r19, 0x00	; 0
    1dd4:	40 e8       	ldi	r20, 0x80	; 128
    1dd6:	5f e3       	ldi	r21, 0x3F	; 63
    1dd8:	c7 01       	movw	r24, r14
    1dda:	b6 01       	movw	r22, r12
    1ddc:	95 d0       	rcall	.+298    	; 0x1f08 <__addsf3>
    1dde:	14 c0       	rjmp	.+40     	; 0x1e08 <__vector_45+0xc2>
			updateMbaseSpeed((uint16_t)(gs_base_ctrl.speed));		//apply the timer period table according to the actual speed
		}
		else if(gs_base_ctrl.c_steps_made >= gs_base_ctrl.n_to_start_breaking){	//if we net to reduce the angular speed
    1de0:	20 91 fe 04 	lds	r18, 0x04FE	; 0x8004fe <gs_base_ctrl+0xc>
    1de4:	30 91 ff 04 	lds	r19, 0x04FF	; 0x8004ff <gs_base_ctrl+0xd>
    1de8:	82 17       	cp	r24, r18
    1dea:	93 07       	cpc	r25, r19
    1dec:	e0 f0       	brcs	.+56     	; 0x1e26 <__vector_45+0xe0>
			gs_base_ctrl.speed -= BREAKING_SCALER;
    1dee:	20 e0       	ldi	r18, 0x00	; 0
    1df0:	30 e0       	ldi	r19, 0x00	; 0
    1df2:	40 e8       	ldi	r20, 0x80	; 128
    1df4:	5f e3       	ldi	r21, 0x3F	; 63
    1df6:	60 91 04 05 	lds	r22, 0x0504	; 0x800504 <gs_base_ctrl+0x12>
    1dfa:	70 91 05 05 	lds	r23, 0x0505	; 0x800505 <gs_base_ctrl+0x13>
    1dfe:	80 91 06 05 	lds	r24, 0x0506	; 0x800506 <gs_base_ctrl+0x14>
    1e02:	90 91 07 05 	lds	r25, 0x0507	; 0x800507 <gs_base_ctrl+0x15>
    1e06:	7f d0       	rcall	.+254    	; 0x1f06 <__subsf3>
    1e08:	60 93 04 05 	sts	0x0504, r22	; 0x800504 <gs_base_ctrl+0x12>
    1e0c:	70 93 05 05 	sts	0x0505, r23	; 0x800505 <gs_base_ctrl+0x13>
    1e10:	80 93 06 05 	sts	0x0506, r24	; 0x800506 <gs_base_ctrl+0x14>
    1e14:	90 93 07 05 	sts	0x0507, r25	; 0x800507 <gs_base_ctrl+0x15>
			updateMbaseSpeed((uint16_t)(gs_base_ctrl.speed));
    1e18:	0e 94 56 05 	call	0xaac	; 0xaac <__fixunssfsi>
    1e1c:	cb 01       	movw	r24, r22
		}
	}
	else{
		updateMbaseSpeed(0);
    1e1e:	02 c0       	rjmp	.+4      	; 0x1e24 <__vector_45+0xde>
    1e20:	80 e0       	ldi	r24, 0x00	; 0
    1e22:	90 e0       	ldi	r25, 0x00	; 0
    1e24:	d3 dd       	rcall	.-1114   	; 0x19cc <_Z16updateMbaseSpeedj>
	}
	
	if (abs(gs_top_ctrl.prog_speed) >= INITIAL_SPEED){
    1e26:	80 91 10 05 	lds	r24, 0x0510	; 0x800510 <gs_top_ctrl+0x8>
    1e2a:	90 91 11 05 	lds	r25, 0x0511	; 0x800511 <gs_top_ctrl+0x9>
    1e2e:	97 ff       	sbrs	r25, 7
    1e30:	03 c0       	rjmp	.+6      	; 0x1e38 <__vector_45+0xf2>
    1e32:	91 95       	neg	r25
    1e34:	81 95       	neg	r24
    1e36:	91 09       	sbc	r25, r1
    1e38:	0a 97       	sbiw	r24, 0x0a	; 10
    1e3a:	0c f4       	brge	.+2      	; 0x1e3e <__vector_45+0xf8>
    1e3c:	4a c0       	rjmp	.+148    	; 0x1ed2 <__vector_45+0x18c>
		if (gs_top_ctrl.c_steps_made <= gs_top_ctrl.n_to_cruse_speed){	//if we need to speed up
    1e3e:	80 91 18 05 	lds	r24, 0x0518	; 0x800518 <gs_top_ctrl+0x10>
    1e42:	90 91 19 05 	lds	r25, 0x0519	; 0x800519 <gs_top_ctrl+0x11>
    1e46:	20 91 12 05 	lds	r18, 0x0512	; 0x800512 <gs_top_ctrl+0xa>
    1e4a:	30 91 13 05 	lds	r19, 0x0513	; 0x800513 <gs_top_ctrl+0xb>
    1e4e:	28 17       	cp	r18, r24
    1e50:	39 07       	cpc	r19, r25
    1e52:	f8 f0       	brcs	.+62     	; 0x1e92 <__vector_45+0x14c>
			gs_top_ctrl.speed = max(INITIAL_SPEED,gs_top_ctrl.speed);
    1e54:	c0 90 1a 05 	lds	r12, 0x051A	; 0x80051a <gs_top_ctrl+0x12>
    1e58:	d0 90 1b 05 	lds	r13, 0x051B	; 0x80051b <gs_top_ctrl+0x13>
    1e5c:	e0 90 1c 05 	lds	r14, 0x051C	; 0x80051c <gs_top_ctrl+0x14>
    1e60:	f0 90 1d 05 	lds	r15, 0x051D	; 0x80051d <gs_top_ctrl+0x15>
    1e64:	20 e0       	ldi	r18, 0x00	; 0
    1e66:	30 e0       	ldi	r19, 0x00	; 0
    1e68:	40 e2       	ldi	r20, 0x20	; 32
    1e6a:	51 e4       	ldi	r21, 0x41	; 65
    1e6c:	c7 01       	movw	r24, r14
    1e6e:	b6 01       	movw	r22, r12
    1e70:	b1 d0       	rcall	.+354    	; 0x1fd4 <__cmpsf2>
    1e72:	87 ff       	sbrs	r24, 7
    1e74:	06 c0       	rjmp	.+12     	; 0x1e82 <__vector_45+0x13c>
    1e76:	c1 2c       	mov	r12, r1
    1e78:	d1 2c       	mov	r13, r1
    1e7a:	80 e2       	ldi	r24, 0x20	; 32
    1e7c:	e8 2e       	mov	r14, r24
    1e7e:	81 e4       	ldi	r24, 0x41	; 65
    1e80:	f8 2e       	mov	r15, r24
			gs_top_ctrl.speed += ACC_SCALER;
    1e82:	20 e0       	ldi	r18, 0x00	; 0
    1e84:	30 e0       	ldi	r19, 0x00	; 0
    1e86:	40 e8       	ldi	r20, 0x80	; 128
    1e88:	5f e3       	ldi	r21, 0x3F	; 63
    1e8a:	c7 01       	movw	r24, r14
    1e8c:	b6 01       	movw	r22, r12
    1e8e:	3c d0       	rcall	.+120    	; 0x1f08 <__addsf3>
    1e90:	14 c0       	rjmp	.+40     	; 0x1eba <__vector_45+0x174>
			updateMtopSpeed((uint16_t)(gs_top_ctrl.speed));		//apply the timer period table according to the actual speed
		}
		else if(gs_top_ctrl.c_steps_made >= gs_top_ctrl.n_to_start_breaking){	//if we net to reduce the angular speed
    1e92:	20 91 14 05 	lds	r18, 0x0514	; 0x800514 <gs_top_ctrl+0xc>
    1e96:	30 91 15 05 	lds	r19, 0x0515	; 0x800515 <gs_top_ctrl+0xd>
    1e9a:	82 17       	cp	r24, r18
    1e9c:	93 07       	cpc	r25, r19
    1e9e:	e0 f0       	brcs	.+56     	; 0x1ed8 <__vector_45+0x192>
			gs_top_ctrl.speed -= BREAKING_SCALER;
    1ea0:	20 e0       	ldi	r18, 0x00	; 0
    1ea2:	30 e0       	ldi	r19, 0x00	; 0
    1ea4:	40 e8       	ldi	r20, 0x80	; 128
    1ea6:	5f e3       	ldi	r21, 0x3F	; 63
    1ea8:	60 91 1a 05 	lds	r22, 0x051A	; 0x80051a <gs_top_ctrl+0x12>
    1eac:	70 91 1b 05 	lds	r23, 0x051B	; 0x80051b <gs_top_ctrl+0x13>
    1eb0:	80 91 1c 05 	lds	r24, 0x051C	; 0x80051c <gs_top_ctrl+0x14>
    1eb4:	90 91 1d 05 	lds	r25, 0x051D	; 0x80051d <gs_top_ctrl+0x15>
    1eb8:	26 d0       	rcall	.+76     	; 0x1f06 <__subsf3>
    1eba:	60 93 1a 05 	sts	0x051A, r22	; 0x80051a <gs_top_ctrl+0x12>
    1ebe:	70 93 1b 05 	sts	0x051B, r23	; 0x80051b <gs_top_ctrl+0x13>
    1ec2:	80 93 1c 05 	sts	0x051C, r24	; 0x80051c <gs_top_ctrl+0x14>
    1ec6:	90 93 1d 05 	sts	0x051D, r25	; 0x80051d <gs_top_ctrl+0x15>
			updateMtopSpeed((uint16_t)(gs_top_ctrl.speed));
    1eca:	0e 94 56 05 	call	0xaac	; 0xaac <__fixunssfsi>
    1ece:	cb 01       	movw	r24, r22
		}
	}
	else{
		updateMtopSpeed(0);
    1ed0:	02 c0       	rjmp	.+4      	; 0x1ed6 <__vector_45+0x190>
    1ed2:	80 e0       	ldi	r24, 0x00	; 0
    1ed4:	90 e0       	ldi	r25, 0x00	; 0
    1ed6:	e8 dd       	rcall	.-1072   	; 0x1aa8 <_Z15updateMtopSpeedj>
	}
	
	
    1ed8:	ff 91       	pop	r31
    1eda:	ef 91       	pop	r30
    1edc:	bf 91       	pop	r27
    1ede:	af 91       	pop	r26
    1ee0:	9f 91       	pop	r25
    1ee2:	8f 91       	pop	r24
    1ee4:	7f 91       	pop	r23
    1ee6:	6f 91       	pop	r22
    1ee8:	5f 91       	pop	r21
    1eea:	4f 91       	pop	r20
    1eec:	3f 91       	pop	r19
    1eee:	2f 91       	pop	r18
    1ef0:	ff 90       	pop	r15
    1ef2:	ef 90       	pop	r14
    1ef4:	df 90       	pop	r13
    1ef6:	cf 90       	pop	r12
    1ef8:	0f 90       	pop	r0
    1efa:	0b be       	out	0x3b, r0	; 59
    1efc:	0f 90       	pop	r0
    1efe:	0f be       	out	0x3f, r0	; 63
    1f00:	0f 90       	pop	r0
    1f02:	1f 90       	pop	r1
    1f04:	18 95       	reti

00001f06 <__subsf3>:
    1f06:	50 58       	subi	r21, 0x80	; 128

00001f08 <__addsf3>:
    1f08:	bb 27       	eor	r27, r27
    1f0a:	aa 27       	eor	r26, r26
    1f0c:	0e d0       	rcall	.+28     	; 0x1f2a <__addsf3x>
    1f0e:	26 c1       	rjmp	.+588    	; 0x215c <__fp_round>
    1f10:	17 d1       	rcall	.+558    	; 0x2140 <__fp_pscA>
    1f12:	30 f0       	brcs	.+12     	; 0x1f20 <__addsf3+0x18>
    1f14:	1c d1       	rcall	.+568    	; 0x214e <__fp_pscB>
    1f16:	20 f0       	brcs	.+8      	; 0x1f20 <__addsf3+0x18>
    1f18:	31 f4       	brne	.+12     	; 0x1f26 <__addsf3+0x1e>
    1f1a:	9f 3f       	cpi	r25, 0xFF	; 255
    1f1c:	11 f4       	brne	.+4      	; 0x1f22 <__addsf3+0x1a>
    1f1e:	1e f4       	brtc	.+6      	; 0x1f26 <__addsf3+0x1e>
    1f20:	0c c1       	rjmp	.+536    	; 0x213a <__fp_nan>
    1f22:	0e f4       	brtc	.+2      	; 0x1f26 <__addsf3+0x1e>
    1f24:	e0 95       	com	r30
    1f26:	e7 fb       	bst	r30, 7
    1f28:	02 c1       	rjmp	.+516    	; 0x212e <__fp_inf>

00001f2a <__addsf3x>:
    1f2a:	e9 2f       	mov	r30, r25
    1f2c:	0e 94 82 05 	call	0xb04	; 0xb04 <__fp_split3>
    1f30:	78 f3       	brcs	.-34     	; 0x1f10 <__addsf3+0x8>
    1f32:	ba 17       	cp	r27, r26
    1f34:	62 07       	cpc	r22, r18
    1f36:	73 07       	cpc	r23, r19
    1f38:	84 07       	cpc	r24, r20
    1f3a:	95 07       	cpc	r25, r21
    1f3c:	20 f0       	brcs	.+8      	; 0x1f46 <__addsf3x+0x1c>
    1f3e:	79 f4       	brne	.+30     	; 0x1f5e <__addsf3x+0x34>
    1f40:	a6 f5       	brtc	.+104    	; 0x1faa <__addsf3x+0x80>
    1f42:	0c 94 a4 05 	jmp	0xb48	; 0xb48 <__fp_zero>
    1f46:	0e f4       	brtc	.+2      	; 0x1f4a <__addsf3x+0x20>
    1f48:	e0 95       	com	r30
    1f4a:	0b 2e       	mov	r0, r27
    1f4c:	ba 2f       	mov	r27, r26
    1f4e:	a0 2d       	mov	r26, r0
    1f50:	0b 01       	movw	r0, r22
    1f52:	b9 01       	movw	r22, r18
    1f54:	90 01       	movw	r18, r0
    1f56:	0c 01       	movw	r0, r24
    1f58:	ca 01       	movw	r24, r20
    1f5a:	a0 01       	movw	r20, r0
    1f5c:	11 24       	eor	r1, r1
    1f5e:	ff 27       	eor	r31, r31
    1f60:	59 1b       	sub	r21, r25
    1f62:	99 f0       	breq	.+38     	; 0x1f8a <__addsf3x+0x60>
    1f64:	59 3f       	cpi	r21, 0xF9	; 249
    1f66:	50 f4       	brcc	.+20     	; 0x1f7c <__addsf3x+0x52>
    1f68:	50 3e       	cpi	r21, 0xE0	; 224
    1f6a:	68 f1       	brcs	.+90     	; 0x1fc6 <__addsf3x+0x9c>
    1f6c:	1a 16       	cp	r1, r26
    1f6e:	f0 40       	sbci	r31, 0x00	; 0
    1f70:	a2 2f       	mov	r26, r18
    1f72:	23 2f       	mov	r18, r19
    1f74:	34 2f       	mov	r19, r20
    1f76:	44 27       	eor	r20, r20
    1f78:	58 5f       	subi	r21, 0xF8	; 248
    1f7a:	f3 cf       	rjmp	.-26     	; 0x1f62 <__addsf3x+0x38>
    1f7c:	46 95       	lsr	r20
    1f7e:	37 95       	ror	r19
    1f80:	27 95       	ror	r18
    1f82:	a7 95       	ror	r26
    1f84:	f0 40       	sbci	r31, 0x00	; 0
    1f86:	53 95       	inc	r21
    1f88:	c9 f7       	brne	.-14     	; 0x1f7c <__addsf3x+0x52>
    1f8a:	7e f4       	brtc	.+30     	; 0x1faa <__addsf3x+0x80>
    1f8c:	1f 16       	cp	r1, r31
    1f8e:	ba 0b       	sbc	r27, r26
    1f90:	62 0b       	sbc	r22, r18
    1f92:	73 0b       	sbc	r23, r19
    1f94:	84 0b       	sbc	r24, r20
    1f96:	ba f0       	brmi	.+46     	; 0x1fc6 <__addsf3x+0x9c>
    1f98:	91 50       	subi	r25, 0x01	; 1
    1f9a:	a1 f0       	breq	.+40     	; 0x1fc4 <__addsf3x+0x9a>
    1f9c:	ff 0f       	add	r31, r31
    1f9e:	bb 1f       	adc	r27, r27
    1fa0:	66 1f       	adc	r22, r22
    1fa2:	77 1f       	adc	r23, r23
    1fa4:	88 1f       	adc	r24, r24
    1fa6:	c2 f7       	brpl	.-16     	; 0x1f98 <__addsf3x+0x6e>
    1fa8:	0e c0       	rjmp	.+28     	; 0x1fc6 <__addsf3x+0x9c>
    1faa:	ba 0f       	add	r27, r26
    1fac:	62 1f       	adc	r22, r18
    1fae:	73 1f       	adc	r23, r19
    1fb0:	84 1f       	adc	r24, r20
    1fb2:	48 f4       	brcc	.+18     	; 0x1fc6 <__addsf3x+0x9c>
    1fb4:	87 95       	ror	r24
    1fb6:	77 95       	ror	r23
    1fb8:	67 95       	ror	r22
    1fba:	b7 95       	ror	r27
    1fbc:	f7 95       	ror	r31
    1fbe:	9e 3f       	cpi	r25, 0xFE	; 254
    1fc0:	08 f0       	brcs	.+2      	; 0x1fc4 <__addsf3x+0x9a>
    1fc2:	b1 cf       	rjmp	.-158    	; 0x1f26 <__addsf3+0x1e>
    1fc4:	93 95       	inc	r25
    1fc6:	88 0f       	add	r24, r24
    1fc8:	08 f0       	brcs	.+2      	; 0x1fcc <__addsf3x+0xa2>
    1fca:	99 27       	eor	r25, r25
    1fcc:	ee 0f       	add	r30, r30
    1fce:	97 95       	ror	r25
    1fd0:	87 95       	ror	r24
    1fd2:	08 95       	ret

00001fd4 <__cmpsf2>:
    1fd4:	0e 94 af 05 	call	0xb5e	; 0xb5e <__fp_cmp>
    1fd8:	08 f4       	brcc	.+2      	; 0x1fdc <__cmpsf2+0x8>
    1fda:	81 e0       	ldi	r24, 0x01	; 1
    1fdc:	08 95       	ret

00001fde <__divsf3>:
    1fde:	0d d0       	rcall	.+26     	; 0x1ffa <__divsf3x>
    1fe0:	bd c0       	rjmp	.+378    	; 0x215c <__fp_round>
    1fe2:	b5 d0       	rcall	.+362    	; 0x214e <__fp_pscB>
    1fe4:	48 f0       	brcs	.+18     	; 0x1ff8 <__divsf3+0x1a>
    1fe6:	ac d0       	rcall	.+344    	; 0x2140 <__fp_pscA>
    1fe8:	38 f0       	brcs	.+14     	; 0x1ff8 <__divsf3+0x1a>
    1fea:	21 f4       	brne	.+8      	; 0x1ff4 <__divsf3+0x16>
    1fec:	5f 3f       	cpi	r21, 0xFF	; 255
    1fee:	21 f0       	breq	.+8      	; 0x1ff8 <__divsf3+0x1a>
    1ff0:	9e c0       	rjmp	.+316    	; 0x212e <__fp_inf>
    1ff2:	51 11       	cpse	r21, r1
    1ff4:	0c 94 a5 05 	jmp	0xb4a	; 0xb4a <__fp_szero>
    1ff8:	a0 c0       	rjmp	.+320    	; 0x213a <__fp_nan>

00001ffa <__divsf3x>:
    1ffa:	0e 94 82 05 	call	0xb04	; 0xb04 <__fp_split3>
    1ffe:	88 f3       	brcs	.-30     	; 0x1fe2 <__divsf3+0x4>

00002000 <__divsf3_pse>:
    2000:	99 23       	and	r25, r25
    2002:	b9 f3       	breq	.-18     	; 0x1ff2 <__divsf3+0x14>
    2004:	55 23       	and	r21, r21
    2006:	a1 f3       	breq	.-24     	; 0x1ff0 <__divsf3+0x12>
    2008:	95 1b       	sub	r25, r21
    200a:	55 0b       	sbc	r21, r21
    200c:	bb 27       	eor	r27, r27
    200e:	aa 27       	eor	r26, r26
    2010:	62 17       	cp	r22, r18
    2012:	73 07       	cpc	r23, r19
    2014:	84 07       	cpc	r24, r20
    2016:	38 f0       	brcs	.+14     	; 0x2026 <__divsf3_pse+0x26>
    2018:	9f 5f       	subi	r25, 0xFF	; 255
    201a:	5f 4f       	sbci	r21, 0xFF	; 255
    201c:	22 0f       	add	r18, r18
    201e:	33 1f       	adc	r19, r19
    2020:	44 1f       	adc	r20, r20
    2022:	aa 1f       	adc	r26, r26
    2024:	a9 f3       	breq	.-22     	; 0x2010 <__divsf3_pse+0x10>
    2026:	34 d0       	rcall	.+104    	; 0x2090 <__divsf3_pse+0x90>
    2028:	0e 2e       	mov	r0, r30
    202a:	3a f0       	brmi	.+14     	; 0x203a <__divsf3_pse+0x3a>
    202c:	e0 e8       	ldi	r30, 0x80	; 128
    202e:	31 d0       	rcall	.+98     	; 0x2092 <__divsf3_pse+0x92>
    2030:	91 50       	subi	r25, 0x01	; 1
    2032:	50 40       	sbci	r21, 0x00	; 0
    2034:	e6 95       	lsr	r30
    2036:	00 1c       	adc	r0, r0
    2038:	ca f7       	brpl	.-14     	; 0x202c <__divsf3_pse+0x2c>
    203a:	2a d0       	rcall	.+84     	; 0x2090 <__divsf3_pse+0x90>
    203c:	fe 2f       	mov	r31, r30
    203e:	28 d0       	rcall	.+80     	; 0x2090 <__divsf3_pse+0x90>
    2040:	66 0f       	add	r22, r22
    2042:	77 1f       	adc	r23, r23
    2044:	88 1f       	adc	r24, r24
    2046:	bb 1f       	adc	r27, r27
    2048:	26 17       	cp	r18, r22
    204a:	37 07       	cpc	r19, r23
    204c:	48 07       	cpc	r20, r24
    204e:	ab 07       	cpc	r26, r27
    2050:	b0 e8       	ldi	r27, 0x80	; 128
    2052:	09 f0       	breq	.+2      	; 0x2056 <__divsf3_pse+0x56>
    2054:	bb 0b       	sbc	r27, r27
    2056:	80 2d       	mov	r24, r0
    2058:	bf 01       	movw	r22, r30
    205a:	ff 27       	eor	r31, r31
    205c:	93 58       	subi	r25, 0x83	; 131
    205e:	5f 4f       	sbci	r21, 0xFF	; 255
    2060:	32 f0       	brmi	.+12     	; 0x206e <__divsf3_pse+0x6e>
    2062:	9e 3f       	cpi	r25, 0xFE	; 254
    2064:	51 05       	cpc	r21, r1
    2066:	70 f0       	brcs	.+28     	; 0x2084 <__divsf3_pse+0x84>
    2068:	62 c0       	rjmp	.+196    	; 0x212e <__fp_inf>
    206a:	0c 94 a5 05 	jmp	0xb4a	; 0xb4a <__fp_szero>
    206e:	5f 3f       	cpi	r21, 0xFF	; 255
    2070:	e4 f3       	brlt	.-8      	; 0x206a <__divsf3_pse+0x6a>
    2072:	98 3e       	cpi	r25, 0xE8	; 232
    2074:	d4 f3       	brlt	.-12     	; 0x206a <__divsf3_pse+0x6a>
    2076:	86 95       	lsr	r24
    2078:	77 95       	ror	r23
    207a:	67 95       	ror	r22
    207c:	b7 95       	ror	r27
    207e:	f7 95       	ror	r31
    2080:	9f 5f       	subi	r25, 0xFF	; 255
    2082:	c9 f7       	brne	.-14     	; 0x2076 <__divsf3_pse+0x76>
    2084:	88 0f       	add	r24, r24
    2086:	91 1d       	adc	r25, r1
    2088:	96 95       	lsr	r25
    208a:	87 95       	ror	r24
    208c:	97 f9       	bld	r25, 7
    208e:	08 95       	ret
    2090:	e1 e0       	ldi	r30, 0x01	; 1
    2092:	66 0f       	add	r22, r22
    2094:	77 1f       	adc	r23, r23
    2096:	88 1f       	adc	r24, r24
    2098:	bb 1f       	adc	r27, r27
    209a:	62 17       	cp	r22, r18
    209c:	73 07       	cpc	r23, r19
    209e:	84 07       	cpc	r24, r20
    20a0:	ba 07       	cpc	r27, r26
    20a2:	20 f0       	brcs	.+8      	; 0x20ac <__divsf3_pse+0xac>
    20a4:	62 1b       	sub	r22, r18
    20a6:	73 0b       	sbc	r23, r19
    20a8:	84 0b       	sbc	r24, r20
    20aa:	ba 0b       	sbc	r27, r26
    20ac:	ee 1f       	adc	r30, r30
    20ae:	88 f7       	brcc	.-30     	; 0x2092 <__divsf3_pse+0x92>
    20b0:	e0 95       	com	r30
    20b2:	08 95       	ret

000020b4 <__floatunsisf>:
    20b4:	e8 94       	clt
    20b6:	09 c0       	rjmp	.+18     	; 0x20ca <__floatsisf+0x12>

000020b8 <__floatsisf>:
    20b8:	97 fb       	bst	r25, 7
    20ba:	3e f4       	brtc	.+14     	; 0x20ca <__floatsisf+0x12>
    20bc:	90 95       	com	r25
    20be:	80 95       	com	r24
    20c0:	70 95       	com	r23
    20c2:	61 95       	neg	r22
    20c4:	7f 4f       	sbci	r23, 0xFF	; 255
    20c6:	8f 4f       	sbci	r24, 0xFF	; 255
    20c8:	9f 4f       	sbci	r25, 0xFF	; 255
    20ca:	99 23       	and	r25, r25
    20cc:	a9 f0       	breq	.+42     	; 0x20f8 <__floatsisf+0x40>
    20ce:	f9 2f       	mov	r31, r25
    20d0:	96 e9       	ldi	r25, 0x96	; 150
    20d2:	bb 27       	eor	r27, r27
    20d4:	93 95       	inc	r25
    20d6:	f6 95       	lsr	r31
    20d8:	87 95       	ror	r24
    20da:	77 95       	ror	r23
    20dc:	67 95       	ror	r22
    20de:	b7 95       	ror	r27
    20e0:	f1 11       	cpse	r31, r1
    20e2:	f8 cf       	rjmp	.-16     	; 0x20d4 <__floatsisf+0x1c>
    20e4:	fa f4       	brpl	.+62     	; 0x2124 <__floatsisf+0x6c>
    20e6:	bb 0f       	add	r27, r27
    20e8:	11 f4       	brne	.+4      	; 0x20ee <__floatsisf+0x36>
    20ea:	60 ff       	sbrs	r22, 0
    20ec:	1b c0       	rjmp	.+54     	; 0x2124 <__floatsisf+0x6c>
    20ee:	6f 5f       	subi	r22, 0xFF	; 255
    20f0:	7f 4f       	sbci	r23, 0xFF	; 255
    20f2:	8f 4f       	sbci	r24, 0xFF	; 255
    20f4:	9f 4f       	sbci	r25, 0xFF	; 255
    20f6:	16 c0       	rjmp	.+44     	; 0x2124 <__floatsisf+0x6c>
    20f8:	88 23       	and	r24, r24
    20fa:	11 f0       	breq	.+4      	; 0x2100 <__floatsisf+0x48>
    20fc:	96 e9       	ldi	r25, 0x96	; 150
    20fe:	11 c0       	rjmp	.+34     	; 0x2122 <__floatsisf+0x6a>
    2100:	77 23       	and	r23, r23
    2102:	21 f0       	breq	.+8      	; 0x210c <__floatsisf+0x54>
    2104:	9e e8       	ldi	r25, 0x8E	; 142
    2106:	87 2f       	mov	r24, r23
    2108:	76 2f       	mov	r23, r22
    210a:	05 c0       	rjmp	.+10     	; 0x2116 <__floatsisf+0x5e>
    210c:	66 23       	and	r22, r22
    210e:	71 f0       	breq	.+28     	; 0x212c <__floatsisf+0x74>
    2110:	96 e8       	ldi	r25, 0x86	; 134
    2112:	86 2f       	mov	r24, r22
    2114:	70 e0       	ldi	r23, 0x00	; 0
    2116:	60 e0       	ldi	r22, 0x00	; 0
    2118:	2a f0       	brmi	.+10     	; 0x2124 <__floatsisf+0x6c>
    211a:	9a 95       	dec	r25
    211c:	66 0f       	add	r22, r22
    211e:	77 1f       	adc	r23, r23
    2120:	88 1f       	adc	r24, r24
    2122:	da f7       	brpl	.-10     	; 0x211a <__floatsisf+0x62>
    2124:	88 0f       	add	r24, r24
    2126:	96 95       	lsr	r25
    2128:	87 95       	ror	r24
    212a:	97 f9       	bld	r25, 7
    212c:	08 95       	ret

0000212e <__fp_inf>:
    212e:	97 f9       	bld	r25, 7
    2130:	9f 67       	ori	r25, 0x7F	; 127
    2132:	80 e8       	ldi	r24, 0x80	; 128
    2134:	70 e0       	ldi	r23, 0x00	; 0
    2136:	60 e0       	ldi	r22, 0x00	; 0
    2138:	08 95       	ret

0000213a <__fp_nan>:
    213a:	9f ef       	ldi	r25, 0xFF	; 255
    213c:	80 ec       	ldi	r24, 0xC0	; 192
    213e:	08 95       	ret

00002140 <__fp_pscA>:
    2140:	00 24       	eor	r0, r0
    2142:	0a 94       	dec	r0
    2144:	16 16       	cp	r1, r22
    2146:	17 06       	cpc	r1, r23
    2148:	18 06       	cpc	r1, r24
    214a:	09 06       	cpc	r0, r25
    214c:	08 95       	ret

0000214e <__fp_pscB>:
    214e:	00 24       	eor	r0, r0
    2150:	0a 94       	dec	r0
    2152:	12 16       	cp	r1, r18
    2154:	13 06       	cpc	r1, r19
    2156:	14 06       	cpc	r1, r20
    2158:	05 06       	cpc	r0, r21
    215a:	08 95       	ret

0000215c <__fp_round>:
    215c:	09 2e       	mov	r0, r25
    215e:	03 94       	inc	r0
    2160:	00 0c       	add	r0, r0
    2162:	11 f4       	brne	.+4      	; 0x2168 <__fp_round+0xc>
    2164:	88 23       	and	r24, r24
    2166:	52 f0       	brmi	.+20     	; 0x217c <__fp_round+0x20>
    2168:	bb 0f       	add	r27, r27
    216a:	40 f4       	brcc	.+16     	; 0x217c <__fp_round+0x20>
    216c:	bf 2b       	or	r27, r31
    216e:	11 f4       	brne	.+4      	; 0x2174 <__fp_round+0x18>
    2170:	60 ff       	sbrs	r22, 0
    2172:	04 c0       	rjmp	.+8      	; 0x217c <__fp_round+0x20>
    2174:	6f 5f       	subi	r22, 0xFF	; 255
    2176:	7f 4f       	sbci	r23, 0xFF	; 255
    2178:	8f 4f       	sbci	r24, 0xFF	; 255
    217a:	9f 4f       	sbci	r25, 0xFF	; 255
    217c:	08 95       	ret

0000217e <__mulsf3>:
    217e:	0c d0       	rcall	.+24     	; 0x2198 <__mulsf3x>
    2180:	ed cf       	rjmp	.-38     	; 0x215c <__fp_round>
    2182:	de df       	rcall	.-68     	; 0x2140 <__fp_pscA>
    2184:	28 f0       	brcs	.+10     	; 0x2190 <__mulsf3+0x12>
    2186:	e3 df       	rcall	.-58     	; 0x214e <__fp_pscB>
    2188:	18 f0       	brcs	.+6      	; 0x2190 <__mulsf3+0x12>
    218a:	95 23       	and	r25, r21
    218c:	09 f0       	breq	.+2      	; 0x2190 <__mulsf3+0x12>
    218e:	cf cf       	rjmp	.-98     	; 0x212e <__fp_inf>
    2190:	d4 cf       	rjmp	.-88     	; 0x213a <__fp_nan>
    2192:	11 24       	eor	r1, r1
    2194:	0c 94 a5 05 	jmp	0xb4a	; 0xb4a <__fp_szero>

00002198 <__mulsf3x>:
    2198:	0e 94 82 05 	call	0xb04	; 0xb04 <__fp_split3>
    219c:	90 f3       	brcs	.-28     	; 0x2182 <__mulsf3+0x4>

0000219e <__mulsf3_pse>:
    219e:	95 9f       	mul	r25, r21
    21a0:	c1 f3       	breq	.-16     	; 0x2192 <__mulsf3+0x14>
    21a2:	95 0f       	add	r25, r21
    21a4:	50 e0       	ldi	r21, 0x00	; 0
    21a6:	55 1f       	adc	r21, r21
    21a8:	62 9f       	mul	r22, r18
    21aa:	f0 01       	movw	r30, r0
    21ac:	72 9f       	mul	r23, r18
    21ae:	bb 27       	eor	r27, r27
    21b0:	f0 0d       	add	r31, r0
    21b2:	b1 1d       	adc	r27, r1
    21b4:	63 9f       	mul	r22, r19
    21b6:	aa 27       	eor	r26, r26
    21b8:	f0 0d       	add	r31, r0
    21ba:	b1 1d       	adc	r27, r1
    21bc:	aa 1f       	adc	r26, r26
    21be:	64 9f       	mul	r22, r20
    21c0:	66 27       	eor	r22, r22
    21c2:	b0 0d       	add	r27, r0
    21c4:	a1 1d       	adc	r26, r1
    21c6:	66 1f       	adc	r22, r22
    21c8:	82 9f       	mul	r24, r18
    21ca:	22 27       	eor	r18, r18
    21cc:	b0 0d       	add	r27, r0
    21ce:	a1 1d       	adc	r26, r1
    21d0:	62 1f       	adc	r22, r18
    21d2:	73 9f       	mul	r23, r19
    21d4:	b0 0d       	add	r27, r0
    21d6:	a1 1d       	adc	r26, r1
    21d8:	62 1f       	adc	r22, r18
    21da:	83 9f       	mul	r24, r19
    21dc:	a0 0d       	add	r26, r0
    21de:	61 1d       	adc	r22, r1
    21e0:	22 1f       	adc	r18, r18
    21e2:	74 9f       	mul	r23, r20
    21e4:	33 27       	eor	r19, r19
    21e6:	a0 0d       	add	r26, r0
    21e8:	61 1d       	adc	r22, r1
    21ea:	23 1f       	adc	r18, r19
    21ec:	84 9f       	mul	r24, r20
    21ee:	60 0d       	add	r22, r0
    21f0:	21 1d       	adc	r18, r1
    21f2:	82 2f       	mov	r24, r18
    21f4:	76 2f       	mov	r23, r22
    21f6:	6a 2f       	mov	r22, r26
    21f8:	11 24       	eor	r1, r1
    21fa:	9f 57       	subi	r25, 0x7F	; 127
    21fc:	50 40       	sbci	r21, 0x00	; 0
    21fe:	92 f0       	brmi	.+36     	; 0x2224 <__stack+0x25>
    2200:	e9 f0       	breq	.+58     	; 0x223c <__stack+0x3d>
    2202:	88 23       	and	r24, r24
    2204:	4a f0       	brmi	.+18     	; 0x2218 <__stack+0x19>
    2206:	ee 0f       	add	r30, r30
    2208:	ff 1f       	adc	r31, r31
    220a:	bb 1f       	adc	r27, r27
    220c:	66 1f       	adc	r22, r22
    220e:	77 1f       	adc	r23, r23
    2210:	88 1f       	adc	r24, r24
    2212:	91 50       	subi	r25, 0x01	; 1
    2214:	50 40       	sbci	r21, 0x00	; 0
    2216:	a9 f7       	brne	.-22     	; 0x2202 <__stack+0x3>
    2218:	9e 3f       	cpi	r25, 0xFE	; 254
    221a:	51 05       	cpc	r21, r1
    221c:	78 f0       	brcs	.+30     	; 0x223c <__stack+0x3d>
    221e:	87 cf       	rjmp	.-242    	; 0x212e <__fp_inf>
    2220:	0c 94 a5 05 	jmp	0xb4a	; 0xb4a <__fp_szero>
    2224:	5f 3f       	cpi	r21, 0xFF	; 255
    2226:	e4 f3       	brlt	.-8      	; 0x2220 <__stack+0x21>
    2228:	98 3e       	cpi	r25, 0xE8	; 232
    222a:	d4 f3       	brlt	.-12     	; 0x2220 <__stack+0x21>
    222c:	86 95       	lsr	r24
    222e:	77 95       	ror	r23
    2230:	67 95       	ror	r22
    2232:	b7 95       	ror	r27
    2234:	f7 95       	ror	r31
    2236:	e7 95       	ror	r30
    2238:	9f 5f       	subi	r25, 0xFF	; 255
    223a:	c1 f7       	brne	.-16     	; 0x222c <__stack+0x2d>
    223c:	fe 2b       	or	r31, r30
    223e:	88 0f       	add	r24, r24
    2240:	91 1d       	adc	r25, r1
    2242:	96 95       	lsr	r25
    2244:	87 95       	ror	r24
    2246:	97 f9       	bld	r25, 7
    2248:	08 95       	ret

0000224a <__udivmodsi4>:
    224a:	a1 e2       	ldi	r26, 0x21	; 33
    224c:	1a 2e       	mov	r1, r26
    224e:	aa 1b       	sub	r26, r26
    2250:	bb 1b       	sub	r27, r27
    2252:	fd 01       	movw	r30, r26
    2254:	0d c0       	rjmp	.+26     	; 0x2270 <__udivmodsi4_ep>

00002256 <__udivmodsi4_loop>:
    2256:	aa 1f       	adc	r26, r26
    2258:	bb 1f       	adc	r27, r27
    225a:	ee 1f       	adc	r30, r30
    225c:	ff 1f       	adc	r31, r31
    225e:	a2 17       	cp	r26, r18
    2260:	b3 07       	cpc	r27, r19
    2262:	e4 07       	cpc	r30, r20
    2264:	f5 07       	cpc	r31, r21
    2266:	20 f0       	brcs	.+8      	; 0x2270 <__udivmodsi4_ep>
    2268:	a2 1b       	sub	r26, r18
    226a:	b3 0b       	sbc	r27, r19
    226c:	e4 0b       	sbc	r30, r20
    226e:	f5 0b       	sbc	r31, r21

00002270 <__udivmodsi4_ep>:
    2270:	66 1f       	adc	r22, r22
    2272:	77 1f       	adc	r23, r23
    2274:	88 1f       	adc	r24, r24
    2276:	99 1f       	adc	r25, r25
    2278:	1a 94       	dec	r1
    227a:	69 f7       	brne	.-38     	; 0x2256 <__udivmodsi4_loop>
    227c:	60 95       	com	r22
    227e:	70 95       	com	r23
    2280:	80 95       	com	r24
    2282:	90 95       	com	r25
    2284:	9b 01       	movw	r18, r22
    2286:	ac 01       	movw	r20, r24
    2288:	bd 01       	movw	r22, r26
    228a:	cf 01       	movw	r24, r30
    228c:	08 95       	ret

0000228e <__tablejump2__>:
    228e:	ee 0f       	add	r30, r30
    2290:	ff 1f       	adc	r31, r31
    2292:	88 1f       	adc	r24, r24
    2294:	8b bf       	out	0x3b, r24	; 59
    2296:	07 90       	elpm	r0, Z+
    2298:	f6 91       	elpm	r31, Z
    229a:	e0 2d       	mov	r30, r0
    229c:	19 94       	eijmp

0000229e <_exit>:
    229e:	f8 94       	cli

000022a0 <__stop_program>:
    22a0:	ff cf       	rjmp	.-2      	; 0x22a0 <__stop_program>
